

Microchip Technology PIC LITE Macro Assembler V1.41 build -162212810 
                                                                                               Thu Jun 01 12:20:18 2017

Microchip Technology Omniscient Code Generator v1.41 (Free mode) build 201701250102
     1                           	processor	16F887
     2                           	opt	pw 120
     3                           	opt	lm
     4                           	psect	strings,global,class=STRING,delta=2
     5                           	psect	cinit,global,class=CODE,merge=1,delta=2
     6                           	psect	bssCOMMON,global,class=COMMON,space=1,delta=1
     7                           	psect	bssBANK1,global,class=BANK1,space=1,delta=1
     8                           	psect	cstackCOMMON,global,class=COMMON,space=1,delta=1
     9                           	psect	cstackBANK0,global,class=BANK0,space=1,delta=1
    10                           	psect	maintext,global,class=CODE,split=1,delta=2
    11                           	psect	text1,local,class=CODE,merge=1,delta=2
    12                           	psect	text2,local,class=CODE,merge=1,delta=2
    13                           	psect	text3,local,class=CODE,merge=1,delta=2
    14                           	psect	text4,local,class=CODE,merge=1,delta=2
    15                           	psect	text5,local,class=CODE,merge=1,delta=2,group=2
    16                           	psect	text6,local,class=CODE,merge=1,delta=2,group=2
    17                           	psect	text7,local,class=CODE,merge=1,delta=2
    18                           	psect	text8,local,class=CODE,merge=1,delta=2
    19                           	psect	text9,local,class=CODE,merge=1,delta=2
    20                           	psect	text10,local,class=CODE,merge=1,delta=2
    21                           	psect	text11,local,class=CODE,merge=1,delta=2
    22                           	psect	text12,local,class=CODE,merge=1,delta=2
    23                           	psect	text13,local,class=CODE,merge=1,delta=2
    24                           	psect	intentry,global,class=CODE,delta=2
    25                           	psect	text14,local,class=CODE,merge=1,delta=2
    26                           	psect	text15,local,class=CODE,merge=1,delta=2
    27                           	dabs	1,0x7E,2
    28  0000                     
    29                           ; Version 1.41
    30                           ; Generated 25/01/2017 GMT
    31                           ; 
    32                           ; Copyright © 2017, Microchip Technology Inc. and its subsidiaries ("Microchip")
    33                           ; All rights reserved.
    34                           ; 
    35                           ; This software is developed by Microchip Technology Inc. and its subsidiaries ("Microch
      +                          ip").
    36                           ; 
    37                           ; Redistribution and use in source and binary forms, with or without modification, are
    38                           ; permitted provided that the following conditions are met:
    39                           ; 
    40                           ;     1. Redistributions of source code must retain the above copyright notice, this lis
      +                          t of
    41                           ;        conditions and the following disclaimer.
    42                           ; 
    43                           ;     2. Redistributions in binary form must reproduce the above copyright notice, this 
      +                          list
    44                           ;        of conditions and the following disclaimer in the documentation and/or other
    45                           ;        materials provided with the distribution.
    46                           ; 
    47                           ;     3. Microchip's name may not be used to endorse or promote products derived from th
      +                          is
    48                           ;        software without specific prior written permission.
    49                           ; 
    50                           ; THIS SOFTWARE IS PROVIDED BY MICROCHIP "AS IS" AND ANY EXPRESS OR IMPLIED WARRANTIES,
    51                           ; INCLUDING, BUT NOT LIMITED TO, THE IMPLIED WARRANTIES OF MERCHANTABILITY AND FITNESS F
      +                          OR
    52                           ; PURPOSE ARE DISCLAIMED.  IN NO EVENT SHALL MICROCHIP BE LIABLE FOR ANY DIRECT, INDIREC
      +                          T,
    53                           ; INCIDENTAL, SPECIAL, EXEMPLARY, OR CONSEQUENTIAL DAMAGES (INCLUDING BUT NOT LIMITED TO
    54                           ; PROCUREMENT OF SUBSTITUTE GOODS OR SERVICES; LOSS OF USE, DATA OR PROFITS; OR BUSINESS
    55                           ; INTERRUPTION) HOWSOEVER CAUSED AND ON ANY THEORY OF LIABILITY, WHETHER IN CONTRACT, ST
      +                          RICT
    56                           ; LIABILITY, OR TORT (INCLUDING NEGLIGENCE OR OTHERWISE) ARISING IN ANY WAY OUT OF THE U
      +                          SE OF
    57                           ; THIS SOFTWARE, EVEN IF ADVISED OF THE POSSIBILITY OF SUCH DAMAGE.
    58                           ; 
    59                           ; 
    60                           ; Code-generator required, PIC16F887 Definitions
    61                           ; 
    62                           ; SFR Addresses
    63  0000                     	;# 
    64  0001                     	;# 
    65  0002                     	;# 
    66  0003                     	;# 
    67  0004                     	;# 
    68  0005                     	;# 
    69  0006                     	;# 
    70  0007                     	;# 
    71  0008                     	;# 
    72  0009                     	;# 
    73  000A                     	;# 
    74  000B                     	;# 
    75  000C                     	;# 
    76  000D                     	;# 
    77  000E                     	;# 
    78  000E                     	;# 
    79  000F                     	;# 
    80  0010                     	;# 
    81  0011                     	;# 
    82  0012                     	;# 
    83  0013                     	;# 
    84  0014                     	;# 
    85  0015                     	;# 
    86  0015                     	;# 
    87  0016                     	;# 
    88  0017                     	;# 
    89  0018                     	;# 
    90  0019                     	;# 
    91  001A                     	;# 
    92  001B                     	;# 
    93  001B                     	;# 
    94  001C                     	;# 
    95  001D                     	;# 
    96  001E                     	;# 
    97  001F                     	;# 
    98  0081                     	;# 
    99  0085                     	;# 
   100  0086                     	;# 
   101  0087                     	;# 
   102  0088                     	;# 
   103  0089                     	;# 
   104  008C                     	;# 
   105  008D                     	;# 
   106  008E                     	;# 
   107  008F                     	;# 
   108  0090                     	;# 
   109  0091                     	;# 
   110  0092                     	;# 
   111  0093                     	;# 
   112  0093                     	;# 
   113  0093                     	;# 
   114  0094                     	;# 
   115  0095                     	;# 
   116  0096                     	;# 
   117  0097                     	;# 
   118  0098                     	;# 
   119  0099                     	;# 
   120  009A                     	;# 
   121  009B                     	;# 
   122  009C                     	;# 
   123  009D                     	;# 
   124  009E                     	;# 
   125  009F                     	;# 
   126  0105                     	;# 
   127  0107                     	;# 
   128  0108                     	;# 
   129  0109                     	;# 
   130  010C                     	;# 
   131  010C                     	;# 
   132  010D                     	;# 
   133  010E                     	;# 
   134  010F                     	;# 
   135  0185                     	;# 
   136  0187                     	;# 
   137  0188                     	;# 
   138  0189                     	;# 
   139  018C                     	;# 
   140  018D                     	;# 
   141                           
   142                           	psect	strings
   143  0600                     __pstrings:	
   144  0600                     stringtab:	
   145  0600                     __stringtab:	
   146                           
   147                           ;	String table - string pointers are 1 byte each
   148  0600  1BFF               	btfsc	btemp+1,7
   149  0601  2E0A               	ljmp	stringcode
   150  0602  1383               	bcf	3,7
   151  0603  187F               	btfsc	btemp+1,0
   152  0604  1783               	bsf	3,7
   153  0605  0800               	movf	0,w
   154  0606  0A84               	incf	4,f
   155  0607  1903               	skipnz
   156  0608  0AFF               	incf	btemp+1,f
   157  0609  0008               	return
   158  060A                     stringcode:	
   159  060A                     stringdir:	
   160  060A  3006               	movlw	high stringdir
   161  060B  008A               	movwf	10
   162  060C  0804               	movf	4,w
   163  060D  0A84               	incf	4,f
   164  060E  0782               	addwf	2,f
   165  060F                     __stringbase:	
   166  060F  3400               	retlw	0
   167  0610                     __end_of__stringtab:	
   168  0610                     _dpowers:	
   169  0610  3401               	retlw	1
   170  0611  3400               	retlw	0
   171  0612  340A               	retlw	10
   172  0613  3400               	retlw	0
   173  0614  3464               	retlw	100
   174  0615  3400               	retlw	0
   175  0616  34E8               	retlw	232
   176  0617  3403               	retlw	3
   177  0618  3410               	retlw	16
   178  0619  3427               	retlw	39
   179  061A                     __end_of_dpowers:	
   180  0018                     _RCSTAbits	set	24
   181  0014                     _SSPCON	set	20
   182  0012                     _T2CON	set	18
   183  0010                     _T1CON	set	16
   184  000F                     _TMR1H	set	15
   185  001A                     _RCREG	set	26
   186  000C                     _PIR1bits	set	12
   187  0006                     _PORTBbits	set	6
   188  000B                     _INTCONbits	set	11
   189  0008                     _PORTD	set	8
   190  0013                     _SSPBUF	set	19
   191  0009                     _PORTE	set	9
   192  0019                     _TXREG	set	25
   193  000E                     _TMR1L	set	14
   194  0010                     _T1CONbits	set	16
   195  0007                     _PORTCbits	set	7
   196  0005                     _PORTAbits	set	5
   197  0005                     _PORTA	set	5
   198  009A                     _SPBRGH	set	154
   199  0099                     _SPBRG	set	153
   200  0094                     _SSPSTAT	set	148
   201  008C                     _PIE1bits	set	140
   202  0092                     _PR2	set	146
   203  0081                     _OPTION_REGbits	set	129
   204  0095                     _WPUB	set	149
   205  0096                     _IOCB	set	150
   206  0089                     _TRISE	set	137
   207  0088                     _TRISD	set	136
   208  0087                     _TRISC	set	135
   209  0086                     _TRISB	set	134
   210  0085                     _TRISA	set	133
   211  008F                     _OSCCON	set	143
   212  0098                     _TXSTAbits	set	152
   213  0187                     _BAUDCTLbits	set	391
   214  0189                     _ANSELH	set	393
   215  0188                     _ANSEL	set	392
   216  061A                     STR_10:	
   217  061A  3444               	retlw	68	;'D'
   218  061B  3445               	retlw	69	;'E'
   219  061C  3453               	retlw	83	;'S'
   220  061D  3450               	retlw	80	;'P'
   221  061E  3441               	retlw	65	;'A'
   222  061F  3443               	retlw	67	;'C'
   223  0620  3448               	retlw	72	;'H'
   224  0621  344F               	retlw	79	;'O'
   225  0622  3420               	retlw	32	;' '
   226  0623  3442               	retlw	66	;'B'
   227  0624  3445               	retlw	69	;'E'
   228  0625  3442               	retlw	66	;'B'
   229  0626  3449               	retlw	73	;'I'
   230  0627  3444               	retlw	68	;'D'
   231  0628  3441               	retlw	65	;'A'
   232  0629  343A               	retlw	58	;':'
   233  062A  3400               	retlw	0
   234  062B                     STR_22:	
   235  062B  3444               	retlw	68	;'D'
   236  062C  3449               	retlw	73	;'I'
   237  062D  344E               	retlw	78	;'N'
   238  062E  3445               	retlw	69	;'E'
   239  062F  3452               	retlw	82	;'R'
   240  0630  344F               	retlw	79	;'O'
   241  0631  3420               	retlw	32	;' '
   242  0632  344D               	retlw	77	;'M'
   243  0633  344F               	retlw	79	;'O'
   244  0634  344E               	retlw	78	;'N'
   245  0635  3445               	retlw	69	;'E'
   246  0636  3444               	retlw	68	;'D'
   247  0637  3445               	retlw	69	;'E'
   248  0638  3452               	retlw	82	;'R'
   249  0639  344F               	retlw	79	;'O'
   250  063A  343A               	retlw	58	;':'
   251  063B  3400               	retlw	0
   252  063C                     STR_14:	
   253  063C  3443               	retlw	67	;'C'
   254  063D  3441               	retlw	65	;'A'
   255  063E  344D               	retlw	77	;'M'
   256  063F  3442               	retlw	66	;'B'
   257  0640  3449               	retlw	73	;'I'
   258  0641  344F               	retlw	79	;'O'
   259  0642  3420               	retlw	32	;' '
   260  0643  3444               	retlw	68	;'D'
   261  0644  3445               	retlw	69	;'E'
   262  0645  3420               	retlw	32	;' '
   263  0646  344C               	retlw	76	;'L'
   264  0647  3455               	retlw	85	;'U'
   265  0648  3443               	retlw	67	;'C'
   266  0649  3445               	retlw	69	;'E'
   267  064A  3453               	retlw	83	;'S'
   268  064B  343A               	retlw	58	;':'
   269  064C  3400               	retlw	0
   270  064D                     STR_17:	
   271  064D  3431               	retlw	49	;'1'
   272  064E  342E               	retlw	46	;'.'
   273  064F  344F               	retlw	79	;'O'
   274  0650  3450               	retlw	80	;'P'
   275  0651  3420               	retlw	32	;' '
   276  0652  3432               	retlw	50	;'2'
   277  0653  342E               	retlw	46	;'.'
   278  0654  3443               	retlw	67	;'C'
   279  0655  344C               	retlw	76	;'L'
   280  0656  3420               	retlw	32	;' '
   281  0657  3436               	retlw	54	;'6'
   282  0658  342E               	retlw	46	;'.'
   283  0659  3445               	retlw	69	;'E'
   284  065A  3458               	retlw	88	;'X'
   285  065B  3449               	retlw	73	;'I'
   286  065C  3454               	retlw	84	;'T'
   287  065D  3400               	retlw	0
   288  065E                     STR_15:	
   289  065E  3431               	retlw	49	;'1'
   290  065F  342C               	retlw	44	;','
   291  0660  3432               	retlw	50	;'2'
   292  0661  342C               	retlw	44	;','
   293  0662  3433               	retlw	51	;'3'
   294  0663  342C               	retlw	44	;','
   295  0664  3434               	retlw	52	;'4'
   296  0665  342C               	retlw	44	;','
   297  0666  3435               	retlw	53	;'5'
   298  0667  342C               	retlw	44	;','
   299  0668  3436               	retlw	54	;'6'
   300  0669  342E               	retlw	46	;'.'
   301  066A  3445               	retlw	69	;'E'
   302  066B  3458               	retlw	88	;'X'
   303  066C  3449               	retlw	73	;'I'
   304  066D  3454               	retlw	84	;'T'
   305  066E  3400               	retlw	0
   306  066F                     STR_1:	
   307  066F  3448               	retlw	72	;'H'
   308  0670  346F               	retlw	111	;'o'
   309  0671  346C               	retlw	108	;'l'
   310  0672  3461               	retlw	97	;'a'
   311  0673  3421               	retlw	33	;'!'
   312  0674  3421               	retlw	33	;'!'
   313  0675  3421               	retlw	33	;'!'
   314  0676  3420               	retlw	32	;' '
   315  0677  3449               	retlw	73	;'I'
   316  0678  346E               	retlw	110	;'n'
   317  0679  3473               	retlw	115	;'s'
   318  067A  3465               	retlw	101	;'e'
   319  067B  3472               	retlw	114	;'r'
   320  067C  3474               	retlw	116	;'t'
   321  067D  3465               	retlw	101	;'e'
   322  067E  3400               	retlw	0
   323  067F                     STR_2:	
   324  067F  3475               	retlw	117	;'u'
   325  0680  346E               	retlw	110	;'n'
   326  0681  3461               	retlw	97	;'a'
   327  0682  3420               	retlw	32	;' '
   328  0683  346D               	retlw	109	;'m'
   329  0684  346F               	retlw	111	;'o'
   330  0685  346E               	retlw	110	;'n'
   331  0686  3465               	retlw	101	;'e'
   332  0687  3464               	retlw	100	;'d'
   333  0688  3461               	retlw	97	;'a'
   334  0689  3420               	retlw	32	;' '
   335  068A  342D               	retlw	45	;'-'
   336  068B  342D               	retlw	45	;'-'
   337  068C  343E               	retlw	62	;'>'
   338  068D  3400               	retlw	0
   339  068E                     STR_26:	
   340  068E  3442               	retlw	66	;'B'
   341  068F  3469               	retlw	105	;'i'
   342  0690  3465               	retlw	101	;'e'
   343  0691  346E               	retlw	110	;'n'
   344  0692  3476               	retlw	118	;'v'
   345  0693  3465               	retlw	101	;'e'
   346  0694  346E               	retlw	110	;'n'
   347  0695  3469               	retlw	105	;'i'
   348  0696  3464               	retlw	100	;'d'
   349  0697  346F               	retlw	111	;'o'
   350  0698  3421               	retlw	33	;'!'
   351  0699  3421               	retlw	33	;'!'
   352  069A  3421               	retlw	33	;'!'
   353  069B  3400               	retlw	0
   354  069C                     STR_16:	
   355  069C  344D               	retlw	77	;'M'
   356  069D  344F               	retlw	79	;'O'
   357  069E  3456               	retlw	86	;'V'
   358  069F  3445               	retlw	69	;'E'
   359  06A0  3452               	retlw	82	;'R'
   360  06A1  3420               	retlw	32	;' '
   361  06A2  3450               	retlw	80	;'P'
   362  06A3  3455               	retlw	85	;'U'
   363  06A4  3445               	retlw	69	;'E'
   364  06A5  3452               	retlw	82	;'R'
   365  06A6  3454               	retlw	84	;'T'
   366  06A7  3441               	retlw	65	;'A'
   367  06A8  343A               	retlw	58	;':'
   368  06A9  3400               	retlw	0
   369  06AA                     STR_3:	
   370  06AA  3454               	retlw	84	;'T'
   371  06AB  3465               	retlw	101	;'e'
   372  06AC  346D               	retlw	109	;'m'
   373  06AD  3470               	retlw	112	;'p'
   374  06AE  3465               	retlw	101	;'e'
   375  06AF  3472               	retlw	114	;'r'
   376  06B0  3461               	retlw	97	;'a'
   377  06B1  3474               	retlw	116	;'t'
   378  06B2  3475               	retlw	117	;'u'
   379  06B3  3472               	retlw	114	;'r'
   380  06B4  3461               	retlw	97	;'a'
   381  06B5  343A               	retlw	58	;':'
   382  06B6  3400               	retlw	0
   383  06B7                     STR_12:	
   384  06B7  3444               	retlw	68	;'D'
   385  06B8  3445               	retlw	69	;'E'
   386  06B9  3453               	retlw	83	;'S'
   387  06BA  3450               	retlw	80	;'P'
   388  06BB  3441               	retlw	65	;'A'
   389  06BC  3443               	retlw	67	;'C'
   390  06BD  3448               	retlw	72	;'H'
   391  06BE  344F               	retlw	79	;'O'
   392  06BF  343A               	retlw	58	;':'
   393  06C0  3400               	retlw	0
   394  06C1                     STR_18:	
   395  06C1  3454               	retlw	84	;'T'
   396  06C2  3461               	retlw	97	;'a'
   397  06C3  346D               	retlw	109	;'m'
   398  06C4  3470               	retlw	112	;'p'
   399  06C5  3469               	retlw	105	;'i'
   400  06C6  3463               	retlw	99	;'c'
   401  06C7  346F               	retlw	111	;'o'
   402  06C8  3473               	retlw	115	;'s'
   403  06C9  343D               	retlw	61	;'='
   404  06CA  3400               	retlw	0
   405  06CB                     STR_20:	
   406  06CB  3454               	retlw	84	;'T'
   407  06CC  346F               	retlw	111	;'o'
   408  06CD  3472               	retlw	114	;'r'
   409  06CE  3474               	retlw	116	;'t'
   410  06CF  3472               	retlw	114	;'r'
   411  06D0  3469               	retlw	105	;'i'
   412  06D1  3478               	retlw	120	;'x'
   413  06D2  343D               	retlw	61	;'='
   414  06D3  3400               	retlw	0
   415  06D4                     STR_6:	
   416  06D4  3444               	retlw	68	;'D'
   417  06D5  3469               	retlw	105	;'i'
   418  06D6  346E               	retlw	110	;'n'
   419  06D7  3465               	retlw	101	;'e'
   420  06D8  3472               	retlw	114	;'r'
   421  06D9  346F               	retlw	111	;'o'
   422  06DA  343A               	retlw	58	;':'
   423  06DB  3400               	retlw	0
   424  06DC                     STR_11:	
   425  06DC  3454               	retlw	84	;'T'
   426  06DD  3461               	retlw	97	;'a'
   427  06DE  346D               	retlw	109	;'m'
   428  06DF  3470               	retlw	112	;'p'
   429  06E0  3469               	retlw	105	;'i'
   430  06E1  3463               	retlw	99	;'c'
   431  06E2  346F               	retlw	111	;'o'
   432  06E3  3400               	retlw	0
   433  06E4                     STR_13:	
   434  06E4  3454               	retlw	84	;'T'
   435  06E5  346F               	retlw	111	;'o'
   436  06E6  3472               	retlw	114	;'r'
   437  06E7  3474               	retlw	116	;'t'
   438  06E8  3472               	retlw	114	;'r'
   439  06E9  3469               	retlw	105	;'i'
   440  06EA  3478               	retlw	120	;'x'
   441  06EB  3400               	retlw	0
   442  06EC                     STR_27:	
   443  06EC  3443               	retlw	67	;'C'
   444  06ED  346D               	retlw	109	;'m'
   445  06EE  3461               	retlw	97	;'a'
   446  06EF  346D               	retlw	109	;'m'
   447  06F0  3475               	retlw	117	;'u'
   448  06F1  3474               	retlw	116	;'t'
   449  06F2  3400               	retlw	0
   450  06F3                     STR_4:	
   451  06F3  342D               	retlw	45	;'-'
   452  06F4  342D               	retlw	45	;'-'
   453  06F5  343E               	retlw	62	;'>'
   454  06F6  3420               	retlw	32	;' '
   455  06F7  3400               	retlw	0
   456  06F8                     STR_5:	
   457  06F8  3425               	retlw	37	;'%'
   458  06F9  3464               	retlw	100	;'d'
   459  06FA  3400               	retlw	0
   460  06F3                     
   461                           ; #config settings
   462  0000                     
   463                           	psect	cinit
   464  0015                     start_initialization:	
   465  0015                     __initialization:	
   466                           
   467                           ; Clear objects allocated to COMMON
   468  0015  01F8               	clrf	__pbssCOMMON& (0+127)
   469  0016  01F9               	clrf	(__pbssCOMMON+1)& (0+127)
   470  0017  01FA               	clrf	(__pbssCOMMON+2)& (0+127)
   471  0018  01FB               	clrf	(__pbssCOMMON+3)& (0+127)
   472  0019  01FC               	clrf	(__pbssCOMMON+4)& (0+127)
   473  001A  01FD               	clrf	(__pbssCOMMON+5)& (0+127)
   474                           
   475                           ; Clear objects allocated to BANK1
   476  001B  1683               	bsf	3,5	;RP0=1, select bank1
   477  001C  1303               	bcf	3,6	;RP1=0, select bank1
   478  001D  01A0               	clrf	__pbssBANK1& (0+127)
   479  001E  01A1               	clrf	(__pbssBANK1+1)& (0+127)
   480  001F  01A2               	clrf	(__pbssBANK1+2)& (0+127)
   481  0020  01A3               	clrf	(__pbssBANK1+3)& (0+127)
   482  0021  01A4               	clrf	(__pbssBANK1+4)& (0+127)
   483  0022  01A5               	clrf	(__pbssBANK1+5)& (0+127)
   484  0023  01A6               	clrf	(__pbssBANK1+6)& (0+127)
   485  0024  01A7               	clrf	(__pbssBANK1+7)& (0+127)
   486  0025  01A8               	clrf	(__pbssBANK1+8)& (0+127)
   487  0026  01A9               	clrf	(__pbssBANK1+9)& (0+127)
   488  0027                     end_of_initialization:	
   489                           ;End of C runtime variable initialization code
   490                           
   491  0027                     __end_of__initialization:	
   492  0027  0183               	clrf	3
   493  0028  120A  158A  2E9B   	ljmp	_main	;jump to C main() function
   494                           
   495                           	psect	bssCOMMON
   496  0078                     __pbssCOMMON:	
   497  0078                     _noControl:	
   498  0078                     	ds	2
   499  007A                     _dinero:	
   500  007A                     	ds	2
   501  007C                     _accionUSART:	
   502  007C                     	ds	1
   503  007D                     _n_mensaje:	
   504  007D                     	ds	1
   505                           
   506                           	psect	bssBANK1
   507  00A0                     __pbssBANK1:	
   508  00A0                     _dineroT:	
   509  00A0                     	ds	2
   510  00A2                     _cont2:	
   511  00A2                     	ds	2
   512  00A4                     _cont:	
   513  00A4                     	ds	2
   514  00A6                     _temperatura:	
   515  00A6                     	ds	1
   516  00A7                     _tampicos:	
   517  00A7                     	ds	1
   518  00A8                     _tortrix:	
   519  00A8                     	ds	1
   520  00A9                     _ADC:	
   521  00A9                     	ds	1
   522                           
   523                           	psect	cstackCOMMON
   524  0070                     __pcstackCOMMON:	
   525  0070                     ?_LCD_t:	
   526  0070                     ?_LCD_W:	
   527                           ; 1 bytes @ 0x0
   528                           
   529  0070                     ?_LCD_init:	
   530                           ; 1 bytes @ 0x0
   531                           
   532  0070                     ?_IRcontrol:	
   533                           ; 1 bytes @ 0x0
   534                           
   535  0070                     ?_check_mensajes:	
   536                           ; 1 bytes @ 0x0
   537                           
   538  0070                     ?_enviarUSART:	
   539                           ; 1 bytes @ 0x0
   540                           
   541  0070                     ??_enviarUSART:	
   542                           ; 1 bytes @ 0x0
   543                           
   544  0070                     ?_enviarDATA_USART:	
   545                           ; 1 bytes @ 0x0
   546                           
   547  0070                     ?_e2accion3:	
   548                           ; 1 bytes @ 0x0
   549                           
   550  0070                     ?_check_transmisiones:	
   551                           ; 1 bytes @ 0x0
   552                           
   553  0070                     ?_ISR:	
   554                           ; 1 bytes @ 0x0
   555                           
   556  0070                     ?_main:	
   557                           ; 1 bytes @ 0x0
   558                           
   559  0070                     enviarUSART@dato:	
   560                           ; 1 bytes @ 0x0
   561                           
   562                           
   563                           ; 1 bytes @ 0x0
   564  0070                     	ds	1
   565  0071                     ??_enviarDATA_USART:	
   566  0071                     ??_ISR:	
   567                           ; 1 bytes @ 0x1
   568                           
   569                           
   570                           ; 1 bytes @ 0x1
   571  0071                     	ds	7
   572                           
   573                           	psect	cstackBANK0
   574  0020                     __pcstackBANK0:	
   575  0020                     ??_LCD_t:	
   576  0020                     ??_IRcontrol:	
   577                           ; 1 bytes @ 0x0
   578                           
   579  0020                     ??_e2accion3:	
   580                           ; 1 bytes @ 0x0
   581                           
   582  0020                     ?___lwdiv:	
   583                           ; 1 bytes @ 0x0
   584                           
   585  0020                     ___lwdiv@divisor:	
   586                           ; 2 bytes @ 0x0
   587                           
   588                           
   589                           ; 2 bytes @ 0x0
   590  0020                     	ds	1
   591  0021                     LCD_t@c:	
   592                           
   593                           ; 1 bytes @ 0x1
   594  0021                     	ds	1
   595  0022                     ?_LCD_t8:	
   596  0022                     ??_LCD_W:	
   597                           ; 1 bytes @ 0x2
   598                           
   599  0022                     e2accion3@color:	
   600                           ; 1 bytes @ 0x2
   601                           
   602  0022                     LCD_t8@i:	
   603                           ; 1 bytes @ 0x2
   604                           
   605  0022                     ___lwdiv@dividend:	
   606                           ; 2 bytes @ 0x2
   607                           
   608                           
   609                           ; 2 bytes @ 0x2
   610  0022                     	ds	2
   611  0024                     ??_LCD_t8:	
   612  0024                     ??___lwdiv:	
   613                           ; 1 bytes @ 0x4
   614                           
   615  0024                     LCD_W@l:	
   616                           ; 1 bytes @ 0x4
   617                           
   618                           
   619                           ; 1 bytes @ 0x4
   620  0024                     	ds	1
   621  0025                     LCD_W@h:	
   622  0025                     ___lwdiv@quotient:	
   623                           ; 1 bytes @ 0x5
   624                           
   625                           
   626                           ; 2 bytes @ 0x5
   627  0025                     	ds	1
   628  0026                     LCD_W@c:	
   629                           
   630                           ; 1 bytes @ 0x6
   631  0026                     	ds	1
   632  0027                     ?_LCD_WM:	
   633  0027                     LCD_t8@l:	
   634                           ; 1 bytes @ 0x7
   635                           
   636  0027                     ___lwdiv@counter:	
   637                           ; 1 bytes @ 0x7
   638                           
   639  0027                     LCD_WM@c:	
   640                           ; 1 bytes @ 0x7
   641                           
   642                           
   643                           ; 2 bytes @ 0x7
   644  0027                     	ds	1
   645  0028                     ?___lwmod:	
   646  0028                     LCD_t8@h:	
   647                           ; 2 bytes @ 0x8
   648                           
   649  0028                     ___lwmod@divisor:	
   650                           ; 1 bytes @ 0x8
   651                           
   652                           
   653                           ; 2 bytes @ 0x8
   654  0028                     	ds	1
   655  0029                     ??_LCD_WM:	
   656  0029                     LCD_t8@rs:	
   657                           ; 1 bytes @ 0x9
   658                           
   659                           
   660                           ; 1 bytes @ 0x9
   661  0029                     	ds	1
   662  002A                     LCD_t8@com:	
   663  002A                     LCD_WM@i:	
   664                           ; 1 bytes @ 0xA
   665                           
   666  002A                     ___lwmod@dividend:	
   667                           ; 1 bytes @ 0xA
   668                           
   669                           
   670                           ; 2 bytes @ 0xA
   671  002A                     	ds	1
   672  002B                     ??_LCD_init:	
   673                           
   674                           ; 1 bytes @ 0xB
   675  002B                     	ds	1
   676  002C                     ??___lwmod:	
   677                           
   678                           ; 1 bytes @ 0xC
   679  002C                     	ds	1
   680  002D                     ___lwmod@counter:	
   681                           
   682                           ; 1 bytes @ 0xD
   683  002D                     	ds	1
   684  002E                     ?_sprintf:	
   685  002E                     sprintf@f:	
   686                           ; 2 bytes @ 0xE
   687                           
   688                           
   689                           ; 1 bytes @ 0xE
   690  002E                     	ds	3
   691  0031                     ??_sprintf:	
   692                           
   693                           ; 1 bytes @ 0x11
   694  0031                     	ds	3
   695  0034                     sprintf@ap:	
   696                           
   697                           ; 1 bytes @ 0x14
   698  0034                     	ds	1
   699  0035                     sprintf@flag:	
   700                           
   701                           ; 1 bytes @ 0x15
   702  0035                     	ds	1
   703  0036                     sprintf@prec:	
   704                           
   705                           ; 1 bytes @ 0x16
   706  0036                     	ds	1
   707  0037                     sprintf@val:	
   708                           
   709                           ; 2 bytes @ 0x17
   710  0037                     	ds	2
   711  0039                     sprintf@sp:	
   712                           
   713                           ; 1 bytes @ 0x19
   714  0039                     	ds	1
   715  003A                     sprintf@c:	
   716                           
   717                           ; 1 bytes @ 0x1A
   718  003A                     	ds	1
   719  003B                     ??_check_mensajes:	
   720                           
   721                           ; 1 bytes @ 0x1B
   722  003B                     	ds	3
   723  003E                     check_mensajes@str_temperatura:	
   724                           
   725                           ; 6 bytes @ 0x1E
   726  003E                     	ds	6
   727  0044                     check_mensajes@str_int:	
   728                           
   729                           ; 8 bytes @ 0x24
   730  0044                     	ds	8
   731  004C                     check_mensajes@str_dinero:	
   732                           
   733                           ; 8 bytes @ 0x2C
   734  004C                     	ds	8
   735  0054                     check_mensajes@str_dinero_444:	
   736                           
   737                           ; 8 bytes @ 0x34
   738  0054                     	ds	8
   739  005C                     check_mensajes@str_dinero2:	
   740                           
   741                           ; 8 bytes @ 0x3C
   742  005C                     	ds	8
   743  0064                     check_mensajes@str_dinero2_445:	
   744                           
   745                           ; 8 bytes @ 0x44
   746  0064                     	ds	8
   747  006C                     check_mensajes@i:	
   748                           
   749                           ; 1 bytes @ 0x4C
   750  006C                     	ds	1
   751  006D                     check_mensajes@i_448:	
   752                           
   753                           ; 1 bytes @ 0x4D
   754  006D                     	ds	1
   755  006E                     ??_check_transmisiones:	
   756                           
   757                           ; 1 bytes @ 0x4E
   758  006E                     	ds	1
   759  006F                     ??_main:	
   760  006F                     main@dato:	
   761                           ; 1 bytes @ 0x4F
   762                           
   763                           
   764                           ; 1 bytes @ 0x4F
   765  006F                     	ds	1
   766                           
   767                           	psect	maintext
   768  0E9B                     __pmaintext:	
   769 ;;
   770 ;;Main: autosize = 0, tempsize = 0, incstack = 0, save=0
   771 ;;
   772 ;; *************** function _main *****************
   773 ;; Defined at:
   774 ;;		line 480 in file "picMaestro.c"
   775 ;; Parameters:    Size  Location     Type
   776 ;;		None
   777 ;; Auto vars:     Size  Location     Type
   778 ;;  dato            1   79[BANK0 ] unsigned char 
   779 ;; Return value:  Size  Location     Type
   780 ;;                  1    wreg      void 
   781 ;; Registers used:
   782 ;;		wreg, fsr0l, fsr0h, status,2, status,0, btemp+1, pclath, cstack
   783 ;; Tracked objects:
   784 ;;		On entry : B00/0
   785 ;;		On exit  : 0/0
   786 ;;		Unchanged: 0/0
   787 ;; Data sizes:     COMMON   BANK0   BANK1   BANK3   BANK2
   788 ;;      Params:         0       0       0       0       0
   789 ;;      Locals:         0       1       0       0       0
   790 ;;      Temps:          0       0       0       0       0
   791 ;;      Totals:         0       1       0       0       0
   792 ;;Total ram usage:        1 bytes
   793 ;; Hardware stack levels required when called:    8
   794 ;; This function calls:
   795 ;;		_IRcontrol
   796 ;;		_LCD_WM
   797 ;;		_LCD_init
   798 ;;		_LCD_t8
   799 ;;		_check_mensajes
   800 ;;		_check_transmisiones
   801 ;; This function is called by:
   802 ;;		Startup code after reset
   803 ;; This function uses a non-reentrant model
   804 ;;
   805                           
   806                           
   807                           ;psect for function _main
   808  0E9B                     _main:	
   809                           
   810                           ;picMaestro.c: 482: OSCCON = 0b01111100;
   811                           
   812                           ;incstack = 0
   813                           ; Regs used in _main: [wreg-fsr0h+status,2+status,0+btemp+1+pclath+cstack]
   814  0E9B  307C               	movlw	124
   815  0E9C  1683               	bsf	3,5	;RP0=1, select bank1
   816  0E9D  1303               	bcf	3,6	;RP1=0, select bank1
   817  0E9E  008F               	movwf	15	;volatile
   818                           
   819                           ;picMaestro.c: 485: ANSEL=0;
   820  0E9F  1683               	bsf	3,5	;RP0=1, select bank3
   821  0EA0  1703               	bsf	3,6	;RP1=1, select bank3
   822  0EA1  0188               	clrf	8	;volatile
   823                           
   824                           ;picMaestro.c: 486: ANSELH=0;
   825  0EA2  0189               	clrf	9	;volatile
   826                           
   827                           ;picMaestro.c: 489: TRISA=0b11000000;
   828  0EA3  30C0               	movlw	192
   829  0EA4  1683               	bsf	3,5	;RP0=1, select bank1
   830  0EA5  1303               	bcf	3,6	;RP1=0, select bank1
   831  0EA6  0085               	movwf	5	;volatile
   832                           
   833                           ;picMaestro.c: 490: TRISB=0b11111111;
   834  0EA7  30FF               	movlw	255
   835  0EA8  0086               	movwf	6	;volatile
   836                           
   837                           ;picMaestro.c: 491: TRISC=0b11010111;
   838  0EA9  30D7               	movlw	215
   839  0EAA  0087               	movwf	7	;volatile
   840                           
   841                           ;picMaestro.c: 492: TRISD=0b00000000;
   842  0EAB  0188               	clrf	8	;volatile
   843                           
   844                           ;picMaestro.c: 493: TRISE=0b00000000;
   845  0EAC  0189               	clrf	9	;volatile
   846                           
   847                           ;picMaestro.c: 495: PORTD=0;
   848  0EAD  1283               	bcf	3,5	;RP0=0, select bank0
   849  0EAE  1303               	bcf	3,6	;RP1=0, select bank0
   850  0EAF  0188               	clrf	8	;volatile
   851                           
   852                           ;picMaestro.c: 496: PORTE=0b11111111;
   853  0EB0  30FF               	movlw	255
   854  0EB1  0089               	movwf	9	;volatile
   855                           
   856                           ;picMaestro.c: 498: LCD_init();
   857  0EB2  120A  118A  2538  120A  158A  	fcall	_LCD_init
   858                           
   859                           ;picMaestro.c: 500: LCD_t8((0b001<<7)|(0x00));
   860  0EB7  3080               	movlw	128
   861  0EB8  1283               	bcf	3,5	;RP0=0, select bank0
   862  0EB9  1303               	bcf	3,6	;RP1=0, select bank0
   863  0EBA  00A2               	movwf	LCD_t8@i
   864  0EBB  3000               	movlw	0
   865  0EBC  00A3               	movwf	LCD_t8@i+1
   866  0EBD  120A  158A  264D  120A  158A  	fcall	_LCD_t8
   867                           
   868                           ;picMaestro.c: 501: LCD_WM("Bienvenido!!!");
   869  0EC2  307F               	movlw	(low ((STR_26-__stringbase)| (0+32768)))& (0+255)
   870  0EC3  1283               	bcf	3,5	;RP0=0, select bank0
   871  0EC4  1303               	bcf	3,6	;RP1=0, select bank0
   872  0EC5  00A7               	movwf	LCD_WM@c
   873  0EC6  3080               	movlw	128
   874  0EC7  00A8               	movwf	LCD_WM@c+1
   875  0EC8  120A  158A  254E  120A  158A  	fcall	_LCD_WM
   876                           
   877                           ;picMaestro.c: 503: LCD_t8((0b001<<7)|(0x40));
   878  0ECD  30C0               	movlw	192
   879  0ECE  1283               	bcf	3,5	;RP0=0, select bank0
   880  0ECF  1303               	bcf	3,6	;RP1=0, select bank0
   881  0ED0  00A2               	movwf	LCD_t8@i
   882  0ED1  3000               	movlw	0
   883  0ED2  00A3               	movwf	LCD_t8@i+1
   884  0ED3  120A  158A  264D  120A  158A  	fcall	_LCD_t8
   885                           
   886                           ;picMaestro.c: 504: LCD_WM("Cmamut");
   887  0ED8  30DD               	movlw	(low ((STR_27-__stringbase)| (0+32768)))& (0+255)
   888  0ED9  1283               	bcf	3,5	;RP0=0, select bank0
   889  0EDA  1303               	bcf	3,6	;RP1=0, select bank0
   890  0EDB  00A7               	movwf	LCD_WM@c
   891  0EDC  3080               	movlw	128
   892  0EDD  00A8               	movwf	LCD_WM@c+1
   893  0EDE  120A  158A  254E  120A  158A  	fcall	_LCD_WM
   894                           
   895                           ;picMaestro.c: 507: IOCB=0b00011111;
   896  0EE3  301F               	movlw	31
   897  0EE4  1683               	bsf	3,5	;RP0=1, select bank1
   898  0EE5  1303               	bcf	3,6	;RP1=0, select bank1
   899  0EE6  0096               	movwf	22	;volatile
   900                           
   901                           ;picMaestro.c: 508: WPUB=0b00011111;
   902  0EE7  301F               	movlw	31
   903  0EE8  0095               	movwf	21	;volatile
   904                           
   905                           ;picMaestro.c: 509: INTCONbits.RBIF=0;
   906  0EE9  100B               	bcf	11,0	;volatile
   907                           
   908                           ;picMaestro.c: 510: INTCONbits.RBIE=1;
   909  0EEA  158B               	bsf	11,3	;volatile
   910                           
   911                           ;picMaestro.c: 511: OPTION_REGbits.nRBPU=0;
   912  0EEB  1381               	bcf	1,7	;volatile
   913                           
   914                           ;picMaestro.c: 513: TMR1L=0;
   915  0EEC  1283               	bcf	3,5	;RP0=0, select bank0
   916  0EED  1303               	bcf	3,6	;RP1=0, select bank0
   917  0EEE  018E               	clrf	14	;volatile
   918                           
   919                           ;picMaestro.c: 514: TMR1H=0;
   920  0EEF  018F               	clrf	15	;volatile
   921                           
   922                           ;picMaestro.c: 515: T1CON= 0B00000111;
   923  0EF0  3007               	movlw	7
   924  0EF1  0090               	movwf	16	;volatile
   925                           
   926                           ;picMaestro.c: 517: PR2=155;
   927  0EF2  309B               	movlw	155
   928  0EF3  1683               	bsf	3,5	;RP0=1, select bank1
   929  0EF4  1303               	bcf	3,6	;RP1=0, select bank1
   930  0EF5  0092               	movwf	18	;volatile
   931                           
   932                           ;picMaestro.c: 518: T2CON = 0b01111111;
   933  0EF6  307F               	movlw	127
   934  0EF7  1283               	bcf	3,5	;RP0=0, select bank0
   935  0EF8  1303               	bcf	3,6	;RP1=0, select bank0
   936  0EF9  0092               	movwf	18	;volatile
   937                           
   938                           ;picMaestro.c: 519: PIR1bits.TMR2IF = 0;
   939  0EFA  108C               	bcf	12,1	;volatile
   940                           
   941                           ;picMaestro.c: 520: PIE1bits.TMR2IE = 1;
   942  0EFB  1683               	bsf	3,5	;RP0=1, select bank1
   943  0EFC  1303               	bcf	3,6	;RP1=0, select bank1
   944  0EFD  148C               	bsf	12,1	;volatile
   945                           
   946                           ;picMaestro.c: 523: SSPSTAT=0b01000000;
   947  0EFE  3040               	movlw	64
   948  0EFF  0094               	movwf	20	;volatile
   949                           
   950                           ;picMaestro.c: 525: SSPCON=0b00110010;
   951  0F00  3032               	movlw	50
   952  0F01  1283               	bcf	3,5	;RP0=0, select bank0
   953  0F02  1303               	bcf	3,6	;RP1=0, select bank0
   954  0F03  0094               	movwf	20	;volatile
   955                           
   956                           ;picMaestro.c: 528: TXSTAbits.SYNC = 0;
   957  0F04  1683               	bsf	3,5	;RP0=1, select bank1
   958  0F05  1303               	bcf	3,6	;RP1=0, select bank1
   959  0F06  1218               	bcf	24,4	;volatile
   960                           
   961                           ;picMaestro.c: 529: TXSTAbits.BRGH = 0;
   962  0F07  1118               	bcf	24,2	;volatile
   963                           
   964                           ;picMaestro.c: 530: TXSTAbits.TXEN = 1;
   965  0F08  1698               	bsf	24,5	;volatile
   966                           
   967                           ;picMaestro.c: 532: BAUDCTLbits.BRG16 = 0;
   968  0F09  1683               	bsf	3,5	;RP0=1, select bank3
   969  0F0A  1703               	bsf	3,6	;RP1=1, select bank3
   970  0F0B  1187               	bcf	7,3	;volatile
   971                           
   972                           ;picMaestro.c: 533: SPBRG = 12;
   973  0F0C  300C               	movlw	12
   974  0F0D  1683               	bsf	3,5	;RP0=1, select bank1
   975  0F0E  1303               	bcf	3,6	;RP1=0, select bank1
   976  0F0F  0099               	movwf	25	;volatile
   977                           
   978                           ;picMaestro.c: 534: SPBRGH = 0;
   979  0F10  019A               	clrf	26	;volatile
   980                           
   981                           ;picMaestro.c: 536: RCSTAbits.SPEN = 1;
   982  0F11  1283               	bcf	3,5	;RP0=0, select bank0
   983  0F12  1303               	bcf	3,6	;RP1=0, select bank0
   984  0F13  1798               	bsf	24,7	;volatile
   985                           
   986                           ;picMaestro.c: 537: RCSTAbits.RX9 = 0;
   987  0F14  1318               	bcf	24,6	;volatile
   988                           
   989                           ;picMaestro.c: 538: RCSTAbits.CREN = 1;
   990  0F15  1618               	bsf	24,4	;volatile
   991                           
   992                           ;picMaestro.c: 541: INTCONbits.PEIE=1;
   993  0F16  170B               	bsf	11,6	;volatile
   994                           
   995                           ;picMaestro.c: 542: INTCONbits.GIE=1;
   996  0F17  178B               	bsf	11,7	;volatile
   997                           
   998                           ;picMaestro.c: 543: INTCONbits.PEIE=1;
   999  0F18  170B               	bsf	11,6	;volatile
  1000                           
  1001                           ;picMaestro.c: 545: char dato=0;
  1002  0F19  01EF               	clrf	main@dato
  1003  0F1A                     l2195:	
  1004                           ;picMaestro.c: 546: while(1){
  1005                           
  1006                           
  1007                           ;picMaestro.c: 547: check_mensajes();
  1008  0F1A  120A  118A  202B  120A  158A  	fcall	_check_mensajes
  1009                           
  1010                           ;picMaestro.c: 548: IRcontrol();
  1011  0F1F  120A  158A  250B  120A  158A  	fcall	_IRcontrol
  1012                           
  1013                           ;picMaestro.c: 549: check_transmisiones();
  1014  0F24  120A  118A  2434  120A  158A  	fcall	_check_transmisiones
  1015  0F29  2F1A               	goto	l2195
  1016  0F2A                     __end_of_main:	
  1017                           
  1018                           	psect	text1
  1019  0434                     __ptext1:	
  1020 ;; *************** function _check_transmisiones *****************
  1021 ;; Defined at:
  1022 ;;		line 337 in file "picMaestro.c"
  1023 ;; Parameters:    Size  Location     Type
  1024 ;;		None
  1025 ;; Auto vars:     Size  Location     Type
  1026 ;;		None
  1027 ;; Return value:  Size  Location     Type
  1028 ;;                  1    wreg      void 
  1029 ;; Registers used:
  1030 ;;		wreg, fsr0l, fsr0h, status,2, status,0, btemp+1, pclath, cstack
  1031 ;; Tracked objects:
  1032 ;;		On entry : 0/0
  1033 ;;		On exit  : 0/0
  1034 ;;		Unchanged: 0/0
  1035 ;; Data sizes:     COMMON   BANK0   BANK1   BANK3   BANK2
  1036 ;;      Params:         0       0       0       0       0
  1037 ;;      Locals:         0       0       0       0       0
  1038 ;;      Temps:          0       1       0       0       0
  1039 ;;      Totals:         0       1       0       0       0
  1040 ;;Total ram usage:        1 bytes
  1041 ;; Hardware stack levels used:    1
  1042 ;; Hardware stack levels required when called:    7
  1043 ;; This function calls:
  1044 ;;		_IRcontrol
  1045 ;;		_LCD_W
  1046 ;;		_LCD_t8
  1047 ;;		_check_mensajes
  1048 ;;		_e2accion3
  1049 ;; This function is called by:
  1050 ;;		_main
  1051 ;; This function uses a non-reentrant model
  1052 ;;
  1053                           
  1054                           
  1055                           ;psect for function _check_transmisiones
  1056  0434                     _check_transmisiones:	
  1057                           
  1058                           ;picMaestro.c: 339: if (noControl==1|accionUSART==1){
  1059                           
  1060                           ;incstack = 0
  1061                           ; Regs used in _check_transmisiones: [wreg-fsr0h+status,2+status,0+btemp+1+pclath+cstack
      +                          ]
  1062  0434  0378               	decf	_noControl,w
  1063  0435  0479               	iorwf	_noControl+1,w
  1064  0436  1D03               	btfss	3,2
  1065  0437  037C               	decf	_accionUSART,w
  1066  0438  1D03               	btfss	3,2
  1067  0439  2C8A               	goto	l1933
  1068                           
  1069                           ;picMaestro.c: 340: n_mensaje=5;
  1070  043A  3005               	movlw	5
  1071  043B  1283               	bcf	3,5	;RP0=0, select bank0
  1072  043C  1303               	bcf	3,6	;RP1=0, select bank0
  1073  043D  00EE               	movwf	??_check_transmisiones
  1074  043E  086E               	movf	??_check_transmisiones,w
  1075  043F  00FD               	movwf	_n_mensaje
  1076                           
  1077                           ;picMaestro.c: 341: check_mensajes();
  1078  0440  120A  118A  202B  120A  118A  	fcall	_check_mensajes
  1079                           
  1080                           ;picMaestro.c: 342: noControl=0;
  1081  0445  01F8               	clrf	_noControl
  1082  0446  01F9               	clrf	_noControl+1
  1083  0447  2C7D               	goto	l1925
  1084  0448                     l1905:	
  1085                           ;picMaestro.c: 344: while (noControl!=6&accionUSART!=6){
  1086                           
  1087                           ;picMaestro.c: 343: accionUSART=0;
  1088                           
  1089                           
  1090                           ;picMaestro.c: 345: IRcontrol();
  1091  0448  120A  158A  250B  120A  118A  	fcall	_IRcontrol
  1092                           
  1093                           ;picMaestro.c: 346: if (noControl!=0&noControl!=6){
  1094  044D  0878               	movf	_noControl,w
  1095  044E  0479               	iorwf	_noControl+1,w
  1096  044F  1903               	btfsc	3,2
  1097  0450  2C70               	goto	l1919
  1098  0451  3006               	movlw	6
  1099  0452  0678               	xorwf	_noControl,w
  1100  0453  0479               	iorwf	_noControl+1,w
  1101  0454  1903               	btfsc	3,2
  1102  0455  2C70               	goto	l1919
  1103                           
  1104                           ;picMaestro.c: 347: e2accion3(noControl);
  1105  0456  0878               	movf	_noControl,w
  1106  0457  120A  158A  24EF  120A  118A  	fcall	_e2accion3
  1107                           
  1108                           ;picMaestro.c: 348: LCD_t8((0b001<<7)|(0x00));
  1109  045C  3080               	movlw	128
  1110  045D  1283               	bcf	3,5	;RP0=0, select bank0
  1111  045E  1303               	bcf	3,6	;RP1=0, select bank0
  1112  045F  00A2               	movwf	LCD_t8@i
  1113  0460  3000               	movlw	0
  1114  0461  00A3               	movwf	LCD_t8@i+1
  1115  0462  120A  158A  264D  120A  118A  	fcall	_LCD_t8
  1116                           
  1117                           ;picMaestro.c: 349: LCD_W(0x30+noControl);
  1118  0467  0878               	movf	_noControl,w
  1119  0468  3E30               	addlw	48
  1120  0469  120A  158A  2578  120A  118A  	fcall	_LCD_W
  1121                           
  1122                           ;picMaestro.c: 350: noControl=0;
  1123  046E  01F8               	clrf	_noControl
  1124  046F  01F9               	clrf	_noControl+1
  1125  0470                     l1919:	
  1126                           
  1127                           ;picMaestro.c: 351: }
  1128                           ;picMaestro.c: 352: if (accionUSART!=0&accionUSART!=6){
  1129  0470  087C               	movf	_accionUSART,w
  1130  0471  1903               	btfsc	3,2
  1131  0472  2C7E               	goto	l1927
  1132  0473  3006               	movlw	6
  1133  0474  067C               	xorwf	_accionUSART,w
  1134  0475  1903               	btfsc	3,2
  1135  0476  2C7E               	goto	l1927
  1136                           
  1137                           ;picMaestro.c: 353: e2accion3(accionUSART);
  1138  0477  087C               	movf	_accionUSART,w
  1139  0478  120A  158A  24EF  120A  118A  	fcall	_e2accion3
  1140  047D                     l1925:	
  1141                           
  1142                           ;picMaestro.c: 354: accionUSART=0;
  1143  047D  01FC               	clrf	_accionUSART
  1144  047E                     l1927:	
  1145  047E  3006               	movlw	6
  1146  047F  0678               	xorwf	_noControl,w
  1147  0480  0479               	iorwf	_noControl+1,w
  1148  0481  1903               	btfsc	3,2
  1149  0482  2C87               	goto	l1931
  1150  0483  3006               	movlw	6
  1151  0484  067C               	xorwf	_accionUSART,w
  1152  0485  1D03               	btfss	3,2
  1153  0486  2C48               	goto	l1905
  1154  0487                     l1931:	
  1155                           
  1156                           ;picMaestro.c: 355: }
  1157                           ;picMaestro.c: 356: }
  1158                           ;picMaestro.c: 357: accionUSART=0;
  1159  0487  01FC               	clrf	_accionUSART
  1160                           
  1161                           ;picMaestro.c: 358: noControl=0;
  1162  0488  01F8               	clrf	_noControl
  1163  0489  01F9               	clrf	_noControl+1
  1164  048A                     l1933:	
  1165                           
  1166                           ;picMaestro.c: 359: }
  1167                           ;picMaestro.c: 361: if (noControl==2|accionUSART==2){
  1168  048A  3002               	movlw	2
  1169  048B  0678               	xorwf	_noControl,w
  1170  048C  0479               	iorwf	_noControl+1,w
  1171  048D  1903               	btfsc	3,2
  1172  048E  2C93               	goto	l1937
  1173  048F  3002               	movlw	2
  1174  0490  067C               	xorwf	_accionUSART,w
  1175  0491  1D03               	btfss	3,2
  1176  0492  2CA7               	goto	l1949
  1177  0493                     l1937:	
  1178                           
  1179                           ;picMaestro.c: 362: n_mensaje=3;
  1180  0493  3003               	movlw	3
  1181  0494  1283               	bcf	3,5	;RP0=0, select bank0
  1182  0495  1303               	bcf	3,6	;RP1=0, select bank0
  1183  0496  00EE               	movwf	??_check_transmisiones
  1184  0497  086E               	movf	??_check_transmisiones,w
  1185  0498  00FD               	movwf	_n_mensaje
  1186                           
  1187                           ;picMaestro.c: 363: check_mensajes();
  1188  0499  120A  118A  202B  120A  118A  	fcall	_check_mensajes
  1189                           
  1190                           ;picMaestro.c: 364: PORTE=0b11111110;
  1191  049E  30FE               	movlw	254
  1192  049F  1283               	bcf	3,5	;RP0=0, select bank0
  1193  04A0  1303               	bcf	3,6	;RP1=0, select bank0
  1194  04A1  0089               	movwf	9	;volatile
  1195                           
  1196                           ;picMaestro.c: 365: SSPBUF=1;
  1197  04A2  3001               	movlw	1
  1198  04A3  0093               	movwf	19	;volatile
  1199                           
  1200                           ;picMaestro.c: 366: noControl=0;
  1201  04A4  01F8               	clrf	_noControl
  1202  04A5  01F9               	clrf	_noControl+1
  1203                           
  1204                           ;picMaestro.c: 367: accionUSART=0;
  1205  04A6  01FC               	clrf	_accionUSART
  1206  04A7                     l1949:	
  1207                           
  1208                           ;picMaestro.c: 368: }
  1209                           ;picMaestro.c: 370: if (noControl==3|accionUSART==3){
  1210  04A7  3003               	movlw	3
  1211  04A8  0678               	xorwf	_noControl,w
  1212  04A9  0479               	iorwf	_noControl+1,w
  1213  04AA  1903               	btfsc	3,2
  1214  04AB  2CB0               	goto	l1953
  1215  04AC  3003               	movlw	3
  1216  04AD  067C               	xorwf	_accionUSART,w
  1217  04AE  1D03               	btfss	3,2
  1218  04AF  2CC4               	goto	l1965
  1219  04B0                     l1953:	
  1220                           
  1221                           ;picMaestro.c: 371: n_mensaje=4;
  1222  04B0  3004               	movlw	4
  1223  04B1  1283               	bcf	3,5	;RP0=0, select bank0
  1224  04B2  1303               	bcf	3,6	;RP1=0, select bank0
  1225  04B3  00EE               	movwf	??_check_transmisiones
  1226  04B4  086E               	movf	??_check_transmisiones,w
  1227  04B5  00FD               	movwf	_n_mensaje
  1228                           
  1229                           ;picMaestro.c: 372: check_mensajes();
  1230  04B6  120A  118A  202B  120A  118A  	fcall	_check_mensajes
  1231                           
  1232                           ;picMaestro.c: 373: PORTE=0b11111110;
  1233  04BB  30FE               	movlw	254
  1234  04BC  1283               	bcf	3,5	;RP0=0, select bank0
  1235  04BD  1303               	bcf	3,6	;RP1=0, select bank0
  1236  04BE  0089               	movwf	9	;volatile
  1237                           
  1238                           ;picMaestro.c: 374: SSPBUF=2;
  1239  04BF  3002               	movlw	2
  1240  04C0  0093               	movwf	19	;volatile
  1241                           
  1242                           ;picMaestro.c: 375: noControl=0;
  1243  04C1  01F8               	clrf	_noControl
  1244  04C2  01F9               	clrf	_noControl+1
  1245                           
  1246                           ;picMaestro.c: 376: accionUSART=0;
  1247  04C3  01FC               	clrf	_accionUSART
  1248  04C4                     l1965:	
  1249                           
  1250                           ;picMaestro.c: 377: }
  1251                           ;picMaestro.c: 379: if (noControl==4|accionUSART==4){
  1252  04C4  3004               	movlw	4
  1253  04C5  0678               	xorwf	_noControl,w
  1254  04C6  0479               	iorwf	_noControl+1,w
  1255  04C7  1903               	btfsc	3,2
  1256  04C8  2CCD               	goto	l1969
  1257  04C9  3004               	movlw	4
  1258  04CA  067C               	xorwf	_accionUSART,w
  1259  04CB  1D03               	btfss	3,2
  1260  04CC  2D0B               	goto	l2005
  1261  04CD                     l1969:	
  1262                           
  1263                           ;picMaestro.c: 380: n_mensaje=6;
  1264  04CD  3006               	movlw	6
  1265  04CE  1283               	bcf	3,5	;RP0=0, select bank0
  1266  04CF  1303               	bcf	3,6	;RP1=0, select bank0
  1267  04D0  00EE               	movwf	??_check_transmisiones
  1268  04D1  086E               	movf	??_check_transmisiones,w
  1269  04D2  00FD               	movwf	_n_mensaje
  1270                           
  1271                           ;picMaestro.c: 381: check_mensajes();
  1272  04D3  120A  118A  202B  120A  118A  	fcall	_check_mensajes
  1273  04D8  2CFC               	goto	L1
  1274  04D9                     l1977:	
  1275                           ;picMaestro.c: 384: while (noControl!=6&accionUSART!=6){
  1276                           
  1277                           ;picMaestro.c: 383: accionUSART=0;
  1278                           
  1279                           ;picMaestro.c: 382: noControl=0;
  1280                           
  1281                           
  1282                           ;picMaestro.c: 385: IRcontrol();
  1283  04D9  120A  158A  250B  120A  118A  	fcall	_IRcontrol
  1284                           
  1285                           ;picMaestro.c: 387: if (noControl==1|accionUSART==1){
  1286  04DE  0378               	decf	_noControl,w
  1287  04DF  0479               	iorwf	_noControl+1,w
  1288  04E0  1D03               	btfss	3,2
  1289  04E1  037C               	decf	_accionUSART,w
  1290  04E2  1D03               	btfss	3,2
  1291  04E3  2CED               	goto	l1989
  1292                           
  1293                           ;picMaestro.c: 388: PORTE=0b11111110;
  1294  04E4  30FE               	movlw	254
  1295  04E5  1283               	bcf	3,5	;RP0=0, select bank0
  1296  04E6  1303               	bcf	3,6	;RP1=0, select bank0
  1297  04E7  0089               	movwf	9	;volatile
  1298                           
  1299                           ;picMaestro.c: 389: SSPBUF=3;
  1300  04E8  3003               	movlw	3
  1301  04E9  0093               	movwf	19	;volatile
  1302                           
  1303                           ;picMaestro.c: 390: noControl=0;
  1304  04EA  01F8               	clrf	_noControl
  1305  04EB  01F9               	clrf	_noControl+1
  1306                           
  1307                           ;picMaestro.c: 391: accionUSART=0;
  1308  04EC  01FC               	clrf	_accionUSART
  1309  04ED                     l1989:	
  1310                           
  1311                           ;picMaestro.c: 392: }
  1312                           ;picMaestro.c: 394: if (noControl==2|accionUSART==2){
  1313  04ED  3002               	movlw	2
  1314  04EE  0678               	xorwf	_noControl,w
  1315  04EF  0479               	iorwf	_noControl+1,w
  1316  04F0  1903               	btfsc	3,2
  1317  04F1  2CF6               	goto	l1993
  1318  04F2  3002               	movlw	2
  1319  04F3  067C               	xorwf	_accionUSART,w
  1320  04F4  1D03               	btfss	3,2
  1321  04F5  2CFF               	goto	l1999
  1322  04F6                     l1993:	
  1323                           
  1324                           ;picMaestro.c: 395: PORTE=0b11111110;
  1325  04F6  30FE               	movlw	254
  1326  04F7  1283               	bcf	3,5	;RP0=0, select bank0
  1327  04F8  1303               	bcf	3,6	;RP1=0, select bank0
  1328  04F9  0089               	movwf	9	;volatile
  1329                           
  1330                           ;picMaestro.c: 396: SSPBUF=4;
  1331  04FA  3004               	movlw	4
  1332  04FB  0093               	movwf	19	;volatile
  1333  04FC                     L1:	
  1334                           
  1335                           ;picMaestro.c: 397: noControl=0;
  1336  04FC  01F8               	clrf	_noControl
  1337  04FD  01F9               	clrf	_noControl+1
  1338                           
  1339                           ;picMaestro.c: 398: accionUSART=0;
  1340  04FE  01FC               	clrf	_accionUSART
  1341  04FF                     l1999:	
  1342  04FF  3006               	movlw	6
  1343  0500  0678               	xorwf	_noControl,w
  1344  0501  0479               	iorwf	_noControl+1,w
  1345  0502  1903               	btfsc	3,2
  1346  0503  2D08               	goto	l2003
  1347  0504  3006               	movlw	6
  1348  0505  067C               	xorwf	_accionUSART,w
  1349  0506  1D03               	btfss	3,2
  1350  0507  2CD9               	goto	l1977
  1351  0508                     l2003:	
  1352                           
  1353                           ;picMaestro.c: 399: }
  1354                           ;picMaestro.c: 400: }
  1355                           ;picMaestro.c: 401: noControl=0;
  1356  0508  01F8               	clrf	_noControl
  1357  0509  01F9               	clrf	_noControl+1
  1358                           
  1359                           ;picMaestro.c: 402: accionUSART=0;
  1360  050A  01FC               	clrf	_accionUSART
  1361  050B                     l2005:	
  1362                           
  1363                           ;picMaestro.c: 403: }
  1364                           ;picMaestro.c: 406: if (noControl==5|accionUSART==5){
  1365  050B  3005               	movlw	5
  1366  050C  0678               	xorwf	_noControl,w
  1367  050D  0479               	iorwf	_noControl+1,w
  1368  050E  1903               	btfsc	3,2
  1369  050F  2D14               	goto	l2009
  1370  0510  3005               	movlw	5
  1371  0511  067C               	xorwf	_accionUSART,w
  1372  0512  1D03               	btfss	3,2
  1373  0513  2D22               	goto	l2017
  1374  0514                     l2009:	
  1375                           
  1376                           ;picMaestro.c: 407: n_mensaje=7;
  1377  0514  3007               	movlw	7
  1378  0515  1283               	bcf	3,5	;RP0=0, select bank0
  1379  0516  1303               	bcf	3,6	;RP1=0, select bank0
  1380  0517  00EE               	movwf	??_check_transmisiones
  1381  0518  086E               	movf	??_check_transmisiones,w
  1382  0519  00FD               	movwf	_n_mensaje
  1383                           
  1384                           ;picMaestro.c: 408: check_mensajes();
  1385  051A  120A  118A  202B  120A  118A  	fcall	_check_mensajes
  1386                           
  1387                           ;picMaestro.c: 409: noControl=0;
  1388  051F  01F8               	clrf	_noControl
  1389  0520  01F9               	clrf	_noControl+1
  1390                           
  1391                           ;picMaestro.c: 410: accionUSART=0;
  1392  0521  01FC               	clrf	_accionUSART
  1393  0522                     l2017:	
  1394                           
  1395                           ;picMaestro.c: 411: }
  1396                           ;picMaestro.c: 414: if (noControl==6|accionUSART==6){
  1397  0522  3006               	movlw	6
  1398  0523  0678               	xorwf	_noControl,w
  1399  0524  0479               	iorwf	_noControl+1,w
  1400  0525  1903               	btfsc	3,2
  1401  0526  2D2B               	goto	l2021
  1402  0527  3006               	movlw	6
  1403  0528  067C               	xorwf	_accionUSART,w
  1404  0529  1D03               	btfss	3,2
  1405  052A  0008               	return
  1406  052B                     l2021:	
  1407                           
  1408                           ;picMaestro.c: 415: n_mensaje=8;
  1409  052B  3008               	movlw	8
  1410  052C  1283               	bcf	3,5	;RP0=0, select bank0
  1411  052D  1303               	bcf	3,6	;RP1=0, select bank0
  1412  052E  00EE               	movwf	??_check_transmisiones
  1413  052F  086E               	movf	??_check_transmisiones,w
  1414  0530  00FD               	movwf	_n_mensaje
  1415                           
  1416                           ;picMaestro.c: 416: check_mensajes();
  1417  0531  120A  118A  202B   	fcall	_check_mensajes
  1418                           
  1419                           ;picMaestro.c: 417: noControl=0;
  1420  0534  01F8               	clrf	_noControl
  1421  0535  01F9               	clrf	_noControl+1
  1422                           
  1423                           ;picMaestro.c: 418: accionUSART=0;
  1424  0536  01FC               	clrf	_accionUSART
  1425  0537  0008               	return
  1426  0538                     __end_of_check_transmisiones:	
  1427                           
  1428                           	psect	text2
  1429  0CEF                     __ptext2:	
  1430 ;; *************** function _e2accion3 *****************
  1431 ;; Defined at:
  1432 ;;		line 326 in file "picMaestro.c"
  1433 ;; Parameters:    Size  Location     Type
  1434 ;;  color           1    wreg     unsigned char 
  1435 ;; Auto vars:     Size  Location     Type
  1436 ;;  color           1    2[BANK0 ] unsigned char 
  1437 ;; Return value:  Size  Location     Type
  1438 ;;                  1    wreg      void 
  1439 ;; Registers used:
  1440 ;;		wreg, status,2, status,0
  1441 ;; Tracked objects:
  1442 ;;		On entry : 0/0
  1443 ;;		On exit  : 0/0
  1444 ;;		Unchanged: 0/0
  1445 ;; Data sizes:     COMMON   BANK0   BANK1   BANK3   BANK2
  1446 ;;      Params:         0       0       0       0       0
  1447 ;;      Locals:         0       1       0       0       0
  1448 ;;      Temps:          0       2       0       0       0
  1449 ;;      Totals:         0       3       0       0       0
  1450 ;;Total ram usage:        3 bytes
  1451 ;; Hardware stack levels used:    1
  1452 ;; Hardware stack levels required when called:    3
  1453 ;; This function calls:
  1454 ;;		Nothing
  1455 ;; This function is called by:
  1456 ;;		_check_transmisiones
  1457 ;; This function uses a non-reentrant model
  1458 ;;
  1459                           
  1460                           
  1461                           ;psect for function _e2accion3
  1462  0CEF                     _e2accion3:	
  1463                           
  1464                           ;incstack = 0
  1465                           ; Regs used in _e2accion3: [wreg+status,2+status,0]
  1466                           ;e2accion3@color stored from wreg
  1467  0CEF  1283               	bcf	3,5	;RP0=0, select bank0
  1468  0CF0  1303               	bcf	3,6	;RP1=0, select bank0
  1469  0CF1  00A2               	movwf	e2accion3@color
  1470                           
  1471                           ;picMaestro.c: 327: PORTE=0b11111101;
  1472  0CF2  30FD               	movlw	253
  1473  0CF3  0089               	movwf	9	;volatile
  1474                           
  1475                           ;picMaestro.c: 328: color+=2;
  1476  0CF4  3002               	movlw	2
  1477  0CF5  00A0               	movwf	??_e2accion3
  1478  0CF6  0820               	movf	??_e2accion3,w
  1479  0CF7  07A2               	addwf	e2accion3@color,f
  1480                           
  1481                           ;picMaestro.c: 330: SSPBUF=3;
  1482  0CF8  3003               	movlw	3
  1483  0CF9  0093               	movwf	19	;volatile
  1484                           
  1485                           ;picMaestro.c: 331: _delay((unsigned long)((1)*(8000000/4000.0)));
  1486  0CFA  3003               	movlw	3
  1487  0CFB  1283               	bcf	3,5	;RP0=0, select bank0
  1488  0CFC  1303               	bcf	3,6	;RP1=0, select bank0
  1489  0CFD  00A1               	movwf	??_e2accion3+1
  1490  0CFE  3097               	movlw	151
  1491  0CFF  00A0               	movwf	??_e2accion3
  1492  0D00                     u1697:	
  1493  0D00  0BA0               	decfsz	??_e2accion3,f
  1494  0D01  2D00               	goto	u1697
  1495  0D02  0BA1               	decfsz	??_e2accion3+1,f
  1496  0D03  2D00               	goto	u1697
  1497                           
  1498                           ;picMaestro.c: 332: SSPBUF=color;
  1499  0D04  1283               	bcf	3,5	;RP0=0, select bank0
  1500  0D05  1303               	bcf	3,6	;RP1=0, select bank0
  1501  0D06  0822               	movf	e2accion3@color,w
  1502  0D07  0093               	movwf	19	;volatile
  1503                           
  1504                           ;picMaestro.c: 333: PORTD=color;
  1505  0D08  0822               	movf	e2accion3@color,w
  1506  0D09  0088               	movwf	8	;volatile
  1507  0D0A  0008               	return
  1508  0D0B                     __end_of_e2accion3:	
  1509                           
  1510                           	psect	text3
  1511  002B                     __ptext3:	
  1512 ;; *************** function _check_mensajes *****************
  1513 ;; Defined at:
  1514 ;;		line 147 in file "picMaestro.c"
  1515 ;; Parameters:    Size  Location     Type
  1516 ;;		None
  1517 ;; Auto vars:     Size  Location     Type
  1518 ;;  str_dinero2     8   68[BANK0 ] unsigned char [8]
  1519 ;;  str_dinero      8   52[BANK0 ] unsigned char [8]
  1520 ;;  i               1   77[BANK0 ] unsigned char 
  1521 ;;  str_int         8   36[BANK0 ] unsigned char [8]
  1522 ;;  str_dinero2     8   60[BANK0 ] unsigned char [8]
  1523 ;;  str_dinero      8   44[BANK0 ] unsigned char [8]
  1524 ;;  i               1   76[BANK0 ] unsigned char 
  1525 ;;  str_temperat    6   30[BANK0 ] unsigned char [6]
  1526 ;; Return value:  Size  Location     Type
  1527 ;;                  1    wreg      void 
  1528 ;; Registers used:
  1529 ;;		wreg, fsr0l, fsr0h, status,2, status,0, btemp+1, pclath, cstack
  1530 ;; Tracked objects:
  1531 ;;		On entry : 0/0
  1532 ;;		On exit  : 0/0
  1533 ;;		Unchanged: 0/0
  1534 ;; Data sizes:     COMMON   BANK0   BANK1   BANK3   BANK2
  1535 ;;      Params:         0       0       0       0       0
  1536 ;;      Locals:         0      48       0       0       0
  1537 ;;      Temps:          0       3       0       0       0
  1538 ;;      Totals:         0      51       0       0       0
  1539 ;;Total ram usage:       51 bytes
  1540 ;; Hardware stack levels used:    1
  1541 ;; Hardware stack levels required when called:    6
  1542 ;; This function calls:
  1543 ;;		_LCD_W
  1544 ;;		_LCD_WM
  1545 ;;		_LCD_t8
  1546 ;;		_sprintf
  1547 ;; This function is called by:
  1548 ;;		_check_transmisiones
  1549 ;;		_main
  1550 ;; This function uses a non-reentrant model
  1551 ;;
  1552                           
  1553                           
  1554                           ;psect for function _check_mensajes
  1555  002B                     _check_mensajes:	
  1556                           
  1557                           ;picMaestro.c: 148: if (n_mensaje==1 & dinero==0){
  1558                           
  1559                           ;incstack = 0
  1560                           ; Regs used in _check_mensajes: [wreg-fsr0h+status,2+status,0+btemp+1+pclath+cstack]
  1561  002B  037D               	decf	_n_mensaje,w
  1562  002C  1D03               	btfss	3,2
  1563  002D  2875               	goto	l1637
  1564  002E  087A               	movf	_dinero,w
  1565  002F  047B               	iorwf	_dinero+1,w
  1566  0030  1D03               	btfss	3,2
  1567  0031  2875               	goto	l1637
  1568                           
  1569                           ;picMaestro.c: 149: n_mensaje=0;
  1570  0032  01FD               	clrf	_n_mensaje
  1571                           
  1572                           ;picMaestro.c: 151: LCD_t8(0b0000000001);
  1573  0033  3001               	movlw	1
  1574  0034  1283               	bcf	3,5	;RP0=0, select bank0
  1575  0035  1303               	bcf	3,6	;RP1=0, select bank0
  1576  0036  00A2               	movwf	LCD_t8@i
  1577  0037  3000               	movlw	0
  1578  0038  00A3               	movwf	LCD_t8@i+1
  1579  0039  120A  158A  264D  120A  118A  	fcall	_LCD_t8
  1580                           
  1581                           ;picMaestro.c: 152: _delay((unsigned long)((2)*(8000000/4000.0)));
  1582  003E  3006               	movlw	6
  1583  003F  1283               	bcf	3,5	;RP0=0, select bank0
  1584  0040  1303               	bcf	3,6	;RP1=0, select bank0
  1585  0041  00BC               	movwf	??_check_mensajes+1
  1586  0042  302F               	movlw	47
  1587  0043  00BB               	movwf	??_check_mensajes
  1588  0044                     u1707:	
  1589  0044  0BBB               	decfsz	??_check_mensajes,f
  1590  0045  2844               	goto	u1707
  1591  0046  0BBC               	decfsz	??_check_mensajes+1,f
  1592  0047  2844               	goto	u1707
  1593  0048  2849               	nop2
  1594                           
  1595                           ;picMaestro.c: 154: LCD_t8((0b001<<7)|(0x00));
  1596  0049  3080               	movlw	128
  1597  004A  1283               	bcf	3,5	;RP0=0, select bank0
  1598  004B  1303               	bcf	3,6	;RP1=0, select bank0
  1599  004C  00A2               	movwf	LCD_t8@i
  1600  004D  3000               	movlw	0
  1601  004E  00A3               	movwf	LCD_t8@i+1
  1602  004F  120A  158A  264D  120A  118A  	fcall	_LCD_t8
  1603                           
  1604                           ;picMaestro.c: 155: LCD_WM("Hola!!! Inserte");
  1605  0054  3060               	movlw	(low ((STR_1-__stringbase)| (0+32768)))& (0+255)
  1606  0055  1283               	bcf	3,5	;RP0=0, select bank0
  1607  0056  1303               	bcf	3,6	;RP1=0, select bank0
  1608  0057  00A7               	movwf	LCD_WM@c
  1609  0058  3080               	movlw	128
  1610  0059  00A8               	movwf	LCD_WM@c+1
  1611  005A  120A  158A  254E  120A  118A  	fcall	_LCD_WM
  1612                           
  1613                           ;picMaestro.c: 157: LCD_t8((0b001<<7)|(0x40));
  1614  005F  30C0               	movlw	192
  1615  0060  1283               	bcf	3,5	;RP0=0, select bank0
  1616  0061  1303               	bcf	3,6	;RP1=0, select bank0
  1617  0062  00A2               	movwf	LCD_t8@i
  1618  0063  3000               	movlw	0
  1619  0064  00A3               	movwf	LCD_t8@i+1
  1620  0065  120A  158A  264D  120A  118A  	fcall	_LCD_t8
  1621                           
  1622                           ;picMaestro.c: 158: LCD_WM("una moneda -->");
  1623  006A  3070               	movlw	(low ((STR_2-__stringbase)| (0+32768)))& (0+255)
  1624  006B  1283               	bcf	3,5	;RP0=0, select bank0
  1625  006C  1303               	bcf	3,6	;RP1=0, select bank0
  1626  006D  00A7               	movwf	LCD_WM@c
  1627  006E  3080               	movlw	128
  1628  006F  00A8               	movwf	LCD_WM@c+1
  1629  0070  120A  158A  254E  120A  118A  	fcall	_LCD_WM
  1630  0075                     l1637:	
  1631                           
  1632                           ;picMaestro.c: 159: }
  1633                           ;picMaestro.c: 160: if (n_mensaje==2 & dinero==0){
  1634  0075  3002               	movlw	2
  1635  0076  067D               	xorwf	_n_mensaje,w
  1636  0077  1D03               	btfss	3,2
  1637  0078  28EE               	goto	l1663
  1638  0079  087A               	movf	_dinero,w
  1639  007A  047B               	iorwf	_dinero+1,w
  1640  007B  1D03               	btfss	3,2
  1641  007C  28EE               	goto	l1663
  1642                           
  1643                           ;picMaestro.c: 162: n_mensaje=0;
  1644  007D  01FD               	clrf	_n_mensaje
  1645                           
  1646                           ;picMaestro.c: 164: LCD_t8(0b0000000001);
  1647  007E  3001               	movlw	1
  1648  007F  1283               	bcf	3,5	;RP0=0, select bank0
  1649  0080  1303               	bcf	3,6	;RP1=0, select bank0
  1650  0081  00A2               	movwf	LCD_t8@i
  1651  0082  3000               	movlw	0
  1652  0083  00A3               	movwf	LCD_t8@i+1
  1653  0084  120A  158A  264D  120A  118A  	fcall	_LCD_t8
  1654                           
  1655                           ;picMaestro.c: 165: _delay((unsigned long)((2)*(8000000/4000.0)));
  1656  0089  3006               	movlw	6
  1657  008A  1283               	bcf	3,5	;RP0=0, select bank0
  1658  008B  1303               	bcf	3,6	;RP1=0, select bank0
  1659  008C  00BC               	movwf	??_check_mensajes+1
  1660  008D  302F               	movlw	47
  1661  008E  00BB               	movwf	??_check_mensajes
  1662  008F                     u1717:	
  1663  008F  0BBB               	decfsz	??_check_mensajes,f
  1664  0090  288F               	goto	u1717
  1665  0091  0BBC               	decfsz	??_check_mensajes+1,f
  1666  0092  288F               	goto	u1717
  1667  0093  2894               	nop2
  1668                           
  1669                           ;picMaestro.c: 167: LCD_t8((0b001<<7)|(0x00));
  1670  0094  3080               	movlw	128
  1671  0095  1283               	bcf	3,5	;RP0=0, select bank0
  1672  0096  1303               	bcf	3,6	;RP1=0, select bank0
  1673  0097  00A2               	movwf	LCD_t8@i
  1674  0098  3000               	movlw	0
  1675  0099  00A3               	movwf	LCD_t8@i+1
  1676  009A  120A  158A  264D  120A  118A  	fcall	_LCD_t8
  1677                           
  1678                           ;picMaestro.c: 168: LCD_WM("Temperatura:");
  1679  009F  309B               	movlw	(low ((STR_3-__stringbase)| (0+32768)))& (0+255)
  1680  00A0  1283               	bcf	3,5	;RP0=0, select bank0
  1681  00A1  1303               	bcf	3,6	;RP1=0, select bank0
  1682  00A2  00A7               	movwf	LCD_WM@c
  1683  00A3  3080               	movlw	128
  1684  00A4  00A8               	movwf	LCD_WM@c+1
  1685  00A5  120A  158A  254E  120A  118A  	fcall	_LCD_WM
  1686                           
  1687                           ;picMaestro.c: 170: LCD_t8((0b001<<7)|(0x40));
  1688  00AA  30C0               	movlw	192
  1689  00AB  1283               	bcf	3,5	;RP0=0, select bank0
  1690  00AC  1303               	bcf	3,6	;RP1=0, select bank0
  1691  00AD  00A2               	movwf	LCD_t8@i
  1692  00AE  3000               	movlw	0
  1693  00AF  00A3               	movwf	LCD_t8@i+1
  1694  00B0  120A  158A  264D  120A  118A  	fcall	_LCD_t8
  1695                           
  1696                           ;picMaestro.c: 171: LCD_WM("--> ");
  1697  00B5  30E4               	movlw	(low ((STR_4-__stringbase)| (0+32768)))& (0+255)
  1698  00B6  1283               	bcf	3,5	;RP0=0, select bank0
  1699  00B7  1303               	bcf	3,6	;RP1=0, select bank0
  1700  00B8  00A7               	movwf	LCD_WM@c
  1701  00B9  3080               	movlw	128
  1702  00BA  00A8               	movwf	LCD_WM@c+1
  1703  00BB  120A  158A  254E  120A  118A  	fcall	_LCD_WM
  1704                           
  1705                           ;picMaestro.c: 172: char str_temperatura[6];
  1706                           ;picMaestro.c: 173: sprintf(str_temperatura, "%d", temperatura);
  1707  00C0  30E9               	movlw	(low ((STR_5-__stringbase)| (0+32768)))& (0+255)
  1708  00C1  1283               	bcf	3,5	;RP0=0, select bank0
  1709  00C2  1303               	bcf	3,6	;RP1=0, select bank0
  1710  00C3  00BB               	movwf	??_check_mensajes
  1711  00C4  083B               	movf	??_check_mensajes,w
  1712  00C5  00AE               	movwf	sprintf@f
  1713  00C6  1683               	bsf	3,5	;RP0=1, select bank1
  1714  00C7  1303               	bcf	3,6	;RP1=0, select bank1
  1715  00C8  0826               	movf	_temperatura^(0+128),w
  1716  00C9  1283               	bcf	3,5	;RP0=0, select bank0
  1717  00CA  1303               	bcf	3,6	;RP1=0, select bank0
  1718  00CB  00BC               	movwf	??_check_mensajes+1
  1719  00CC  01BD               	clrf	??_check_mensajes+2
  1720  00CD  083C               	movf	??_check_mensajes+1,w
  1721  00CE  00AF               	movwf	?_sprintf+1
  1722  00CF  083D               	movf	??_check_mensajes+2,w
  1723  00D0  00B0               	movwf	?_sprintf+2
  1724  00D1  303E               	movlw	(low (check_mensajes@str_temperatura| 0))& (0+255)
  1725  00D2  120A  158A  272A  120A  118A  	fcall	_sprintf
  1726                           
  1727                           ;picMaestro.c: 174: LCD_WM(str_temperatura);
  1728  00D7  303E               	movlw	(low (check_mensajes@str_temperatura| 0))& (0+255)
  1729  00D8  1283               	bcf	3,5	;RP0=0, select bank0
  1730  00D9  1303               	bcf	3,6	;RP1=0, select bank0
  1731  00DA  00A7               	movwf	LCD_WM@c
  1732  00DB  3000               	movlw	0
  1733  00DC  00A8               	movwf	LCD_WM@c+1
  1734  00DD  120A  158A  254E  120A  118A  	fcall	_LCD_WM
  1735                           
  1736                           ;picMaestro.c: 175: LCD_W(0b11011111);
  1737  00E2  30DF               	movlw	223
  1738  00E3  120A  158A  2578  120A  118A  	fcall	_LCD_W
  1739                           
  1740                           ;picMaestro.c: 176: LCD_W('C');
  1741  00E8  3043               	movlw	67
  1742  00E9  120A  158A  2578  120A  118A  	fcall	_LCD_W
  1743  00EE                     l1663:	
  1744                           
  1745                           ;picMaestro.c: 177: }
  1746                           ;picMaestro.c: 178: if (n_mensaje==1 & dinero>0){
  1747  00EE  037D               	decf	_n_mensaje,w
  1748  00EF  1D03               	btfss	3,2
  1749  00F0  29AF               	goto	l1711
  1750  00F1  087B               	movf	_dinero+1,w
  1751  00F2  3A80               	xorlw	128
  1752  00F3  00FF               	movwf	127
  1753  00F4  3080               	movlw	128
  1754  00F5  027F               	subwf	127,w
  1755  00F6  1D03               	skipz
  1756  00F7  28FA               	goto	u1185
  1757  00F8  3001               	movlw	1
  1758  00F9  027A               	subwf	_dinero,w
  1759  00FA                     u1185:	
  1760  00FA  1C03               	skipc
  1761  00FB  29AF               	goto	l1711
  1762                           
  1763                           ;picMaestro.c: 179: n_mensaje=0;
  1764  00FC  01FD               	clrf	_n_mensaje
  1765                           
  1766                           ;picMaestro.c: 181: LCD_t8(0b0000000001);
  1767  00FD  3001               	movlw	1
  1768  00FE  1283               	bcf	3,5	;RP0=0, select bank0
  1769  00FF  1303               	bcf	3,6	;RP1=0, select bank0
  1770  0100  00A2               	movwf	LCD_t8@i
  1771  0101  3000               	movlw	0
  1772  0102  00A3               	movwf	LCD_t8@i+1
  1773  0103  120A  158A  264D  120A  118A  	fcall	_LCD_t8
  1774                           
  1775                           ;picMaestro.c: 182: _delay((unsigned long)((2)*(8000000/4000.0)));
  1776  0108  3006               	movlw	6
  1777  0109  1283               	bcf	3,5	;RP0=0, select bank0
  1778  010A  1303               	bcf	3,6	;RP1=0, select bank0
  1779  010B  00BC               	movwf	??_check_mensajes+1
  1780  010C  302F               	movlw	47
  1781  010D  00BB               	movwf	??_check_mensajes
  1782  010E                     u1727:	
  1783  010E  0BBB               	decfsz	??_check_mensajes,f
  1784  010F  290E               	goto	u1727
  1785  0110  0BBC               	decfsz	??_check_mensajes+1,f
  1786  0111  290E               	goto	u1727
  1787  0112  2913               	nop2
  1788                           
  1789                           ;picMaestro.c: 184: LCD_t8((0b001<<7)|(0x00));
  1790  0113  3080               	movlw	128
  1791  0114  1283               	bcf	3,5	;RP0=0, select bank0
  1792  0115  1303               	bcf	3,6	;RP1=0, select bank0
  1793  0116  00A2               	movwf	LCD_t8@i
  1794  0117  3000               	movlw	0
  1795  0118  00A3               	movwf	LCD_t8@i+1
  1796  0119  120A  158A  264D  120A  118A  	fcall	_LCD_t8
  1797                           
  1798                           ;picMaestro.c: 185: LCD_WM("Dinero:");
  1799  011E  30C5               	movlw	(low ((STR_6-__stringbase)| (0+32768)))& (0+255)
  1800  011F  1283               	bcf	3,5	;RP0=0, select bank0
  1801  0120  1303               	bcf	3,6	;RP1=0, select bank0
  1802  0121  00A7               	movwf	LCD_WM@c
  1803  0122  3080               	movlw	128
  1804  0123  00A8               	movwf	LCD_WM@c+1
  1805  0124  120A  158A  254E  120A  118A  	fcall	_LCD_WM
  1806                           
  1807                           ;picMaestro.c: 187: LCD_t8((0b001<<7)|(0x40));
  1808  0129  30C0               	movlw	192
  1809  012A  1283               	bcf	3,5	;RP0=0, select bank0
  1810  012B  1303               	bcf	3,6	;RP1=0, select bank0
  1811  012C  00A2               	movwf	LCD_t8@i
  1812  012D  3000               	movlw	0
  1813  012E  00A3               	movwf	LCD_t8@i+1
  1814  012F  120A  158A  264D  120A  118A  	fcall	_LCD_t8
  1815                           
  1816                           ;picMaestro.c: 188: LCD_WM("--> ");
  1817  0134  30E4               	movlw	(low ((STR_4-__stringbase)| (0+32768)))& (0+255)
  1818  0135  1283               	bcf	3,5	;RP0=0, select bank0
  1819  0136  1303               	bcf	3,6	;RP1=0, select bank0
  1820  0137  00A7               	movwf	LCD_WM@c
  1821  0138  3080               	movlw	128
  1822  0139  00A8               	movwf	LCD_WM@c+1
  1823  013A  120A  158A  254E  120A  118A  	fcall	_LCD_WM
  1824                           
  1825                           ;picMaestro.c: 191: char str_dinero[8];
  1826                           ;picMaestro.c: 192: char str_dinero2[8];
  1827                           ;picMaestro.c: 193: sprintf(str_dinero, "%d", dinero);
  1828  013F  30E9               	movlw	(low ((STR_5-__stringbase)| (0+32768)))& (0+255)
  1829  0140  1283               	bcf	3,5	;RP0=0, select bank0
  1830  0141  1303               	bcf	3,6	;RP1=0, select bank0
  1831  0142  00BB               	movwf	??_check_mensajes
  1832  0143  083B               	movf	??_check_mensajes,w
  1833  0144  00AE               	movwf	sprintf@f
  1834  0145  087B               	movf	_dinero+1,w
  1835  0146  00B0               	movwf	?_sprintf+2
  1836  0147  087A               	movf	_dinero,w
  1837  0148  00AF               	movwf	?_sprintf+1
  1838  0149  304C               	movlw	(low (check_mensajes@str_dinero| 0))& (0+255)
  1839  014A  120A  158A  272A  120A  118A  	fcall	_sprintf
  1840                           
  1841                           ;picMaestro.c: 194: sprintf(str_dinero2, "%d", dinero);
  1842  014F  30E9               	movlw	(low ((STR_5-__stringbase)| (0+32768)))& (0+255)
  1843  0150  1283               	bcf	3,5	;RP0=0, select bank0
  1844  0151  1303               	bcf	3,6	;RP1=0, select bank0
  1845  0152  00BB               	movwf	??_check_mensajes
  1846  0153  083B               	movf	??_check_mensajes,w
  1847  0154  00AE               	movwf	sprintf@f
  1848  0155  087B               	movf	_dinero+1,w
  1849  0156  00B0               	movwf	?_sprintf+2
  1850  0157  087A               	movf	_dinero,w
  1851  0158  00AF               	movwf	?_sprintf+1
  1852  0159  305C               	movlw	(low (check_mensajes@str_dinero2| 0))& (0+255)
  1853  015A  120A  158A  272A  120A  118A  	fcall	_sprintf
  1854                           
  1855                           ;picMaestro.c: 196: char i;
  1856                           ;picMaestro.c: 197: for(i = 0; str_dinero[i] != '\0'; ++i);
  1857  015F  1283               	bcf	3,5	;RP0=0, select bank0
  1858  0160  1303               	bcf	3,6	;RP1=0, select bank0
  1859  0161  01EC               	clrf	check_mensajes@i
  1860  0162                     l1689:	
  1861  0162  086C               	movf	check_mensajes@i,w
  1862  0163  3E4C               	addlw	(low (check_mensajes@str_dinero| 0))& (0+255)
  1863  0164  0084               	movwf	4
  1864  0165  1383               	bcf	3,7	;select IRP bank0
  1865  0166  0800               	movf	0,w
  1866  0167  1903               	btfsc	3,2
  1867  0168  296E               	goto	l1691
  1868  0169  3001               	movlw	1
  1869  016A  00BB               	movwf	??_check_mensajes
  1870  016B  083B               	movf	??_check_mensajes,w
  1871  016C  07EC               	addwf	check_mensajes@i,f
  1872  016D  2962               	goto	l1689
  1873  016E                     l1691:	
  1874                           
  1875                           ;picMaestro.c: 198: if (i==2){str_dinero2[0]='0';str_dinero2[1]='\0';}
  1876  016E  3002               	movlw	2
  1877  016F  066C               	xorwf	check_mensajes@i,w
  1878  0170  1D03               	btfss	3,2
  1879  0171  2977               	goto	l1697
  1880  0172  3030               	movlw	48
  1881  0173  00BB               	movwf	??_check_mensajes
  1882  0174  083B               	movf	??_check_mensajes,w
  1883  0175  00DC               	movwf	check_mensajes@str_dinero2
  1884  0176  01DD               	clrf	check_mensajes@str_dinero2+1
  1885  0177                     l1697:	
  1886                           
  1887                           ;picMaestro.c: 199: if (i>2){str_dinero2[i-2]='\0';}
  1888  0177  3003               	movlw	3
  1889  0178  026C               	subwf	check_mensajes@i,w
  1890  0179  1C03               	skipc
  1891  017A  2980               	goto	l1701
  1892  017B  086C               	movf	check_mensajes@i,w
  1893  017C  3EFE               	addlw	254
  1894  017D  3E5C               	addlw	(low (check_mensajes@str_dinero2| 0))& (0+255)
  1895  017E  0084               	movwf	4
  1896  017F  0180               	clrf	0
  1897  0180                     l1701:	
  1898                           
  1899                           ;picMaestro.c: 200: LCD_WM(str_dinero2);
  1900  0180  305C               	movlw	(low (check_mensajes@str_dinero2| 0))& (0+255)
  1901  0181  00A7               	movwf	LCD_WM@c
  1902  0182  3000               	movlw	0
  1903  0183  00A8               	movwf	LCD_WM@c+1
  1904  0184  120A  158A  254E  120A  118A  	fcall	_LCD_WM
  1905                           
  1906                           ;picMaestro.c: 202: LCD_W('.');LCD_W(str_dinero[i-2]);LCD_W(str_dinero[i-1]);LCD_W('Q');
  1907  0189  302E               	movlw	46
  1908  018A  120A  158A  2578  120A  118A  	fcall	_LCD_W
  1909  018F  1283               	bcf	3,5	;RP0=0, select bank0
  1910  0190  1303               	bcf	3,6	;RP1=0, select bank0
  1911  0191  086C               	movf	check_mensajes@i,w
  1912  0192  3EFE               	addlw	254
  1913  0193  3E4C               	addlw	(low (check_mensajes@str_dinero| 0))& (0+255)
  1914  0194  0084               	movwf	4
  1915  0195  1383               	bcf	3,7	;select IRP bank0
  1916  0196  0800               	movf	0,w
  1917  0197  120A  158A  2578  120A  118A  	fcall	_LCD_W
  1918  019C  1283               	bcf	3,5	;RP0=0, select bank0
  1919  019D  1303               	bcf	3,6	;RP1=0, select bank0
  1920  019E  086C               	movf	check_mensajes@i,w
  1921  019F  3EFF               	addlw	255
  1922  01A0  3E4C               	addlw	(low (check_mensajes@str_dinero| 0))& (0+255)
  1923  01A1  0084               	movwf	4
  1924  01A2  1383               	bcf	3,7	;select IRP bank0
  1925  01A3  0800               	movf	0,w
  1926  01A4  120A  158A  2578  120A  118A  	fcall	_LCD_W
  1927  01A9  3051               	movlw	81
  1928  01AA  120A  158A  2578  120A  118A  	fcall	_LCD_W
  1929  01AF                     l1711:	
  1930                           
  1931                           ;picMaestro.c: 203: }
  1932                           ;picMaestro.c: 204: if (n_mensaje==3){
  1933  01AF  3003               	movlw	3
  1934  01B0  067D               	xorwf	_n_mensaje,w
  1935  01B1  1D03               	btfss	3,2
  1936  01B2  29FA               	goto	l1727
  1937                           
  1938                           ;picMaestro.c: 205: n_mensaje=0;
  1939  01B3  01FD               	clrf	_n_mensaje
  1940                           
  1941                           ;picMaestro.c: 206: cont=0;
  1942  01B4  1683               	bsf	3,5	;RP0=1, select bank1
  1943  01B5  1303               	bcf	3,6	;RP1=0, select bank1
  1944  01B6  01A4               	clrf	_cont^(0+128)
  1945  01B7  01A5               	clrf	(_cont+1)^(0+128)
  1946                           
  1947                           ;picMaestro.c: 208: LCD_t8(0b0000000001);
  1948  01B8  3001               	movlw	1
  1949  01B9  1283               	bcf	3,5	;RP0=0, select bank0
  1950  01BA  1303               	bcf	3,6	;RP1=0, select bank0
  1951  01BB  00A2               	movwf	LCD_t8@i
  1952  01BC  3000               	movlw	0
  1953  01BD  00A3               	movwf	LCD_t8@i+1
  1954  01BE  120A  158A  264D  120A  118A  	fcall	_LCD_t8
  1955                           
  1956                           ;picMaestro.c: 209: _delay((unsigned long)((2)*(8000000/4000.0)));
  1957  01C3  3006               	movlw	6
  1958  01C4  1283               	bcf	3,5	;RP0=0, select bank0
  1959  01C5  1303               	bcf	3,6	;RP1=0, select bank0
  1960  01C6  00BC               	movwf	??_check_mensajes+1
  1961  01C7  302F               	movlw	47
  1962  01C8  00BB               	movwf	??_check_mensajes
  1963  01C9                     u1737:	
  1964  01C9  0BBB               	decfsz	??_check_mensajes,f
  1965  01CA  29C9               	goto	u1737
  1966  01CB  0BBC               	decfsz	??_check_mensajes+1,f
  1967  01CC  29C9               	goto	u1737
  1968  01CD  29CE               	nop2
  1969                           
  1970                           ;picMaestro.c: 211: LCD_t8((0b001<<7)|(0x00));
  1971  01CE  3080               	movlw	128
  1972  01CF  1283               	bcf	3,5	;RP0=0, select bank0
  1973  01D0  1303               	bcf	3,6	;RP1=0, select bank0
  1974  01D1  00A2               	movwf	LCD_t8@i
  1975  01D2  3000               	movlw	0
  1976  01D3  00A3               	movwf	LCD_t8@i+1
  1977  01D4  120A  158A  264D  120A  118A  	fcall	_LCD_t8
  1978                           
  1979                           ;picMaestro.c: 212: LCD_WM("DESPACHO BEBIDA:");
  1980  01D9  300B               	movlw	(low ((STR_10-__stringbase)| (0+32768)))& (0+255)
  1981  01DA  1283               	bcf	3,5	;RP0=0, select bank0
  1982  01DB  1303               	bcf	3,6	;RP1=0, select bank0
  1983  01DC  00A7               	movwf	LCD_WM@c
  1984  01DD  3080               	movlw	128
  1985  01DE  00A8               	movwf	LCD_WM@c+1
  1986  01DF  120A  158A  254E  120A  118A  	fcall	_LCD_WM
  1987                           
  1988                           ;picMaestro.c: 214: LCD_t8((0b001<<7)|(0x40));
  1989  01E4  30C0               	movlw	192
  1990  01E5  1283               	bcf	3,5	;RP0=0, select bank0
  1991  01E6  1303               	bcf	3,6	;RP1=0, select bank0
  1992  01E7  00A2               	movwf	LCD_t8@i
  1993  01E8  3000               	movlw	0
  1994  01E9  00A3               	movwf	LCD_t8@i+1
  1995  01EA  120A  158A  264D  120A  118A  	fcall	_LCD_t8
  1996                           
  1997                           ;picMaestro.c: 215: LCD_WM("Tampico");
  1998  01EF  30CD               	movlw	(low ((STR_11-__stringbase)| (0+32768)))& (0+255)
  1999  01F0  1283               	bcf	3,5	;RP0=0, select bank0
  2000  01F1  1303               	bcf	3,6	;RP1=0, select bank0
  2001  01F2  00A7               	movwf	LCD_WM@c
  2002  01F3  3080               	movlw	128
  2003  01F4  00A8               	movwf	LCD_WM@c+1
  2004  01F5  120A  158A  254E  120A  118A  	fcall	_LCD_WM
  2005  01FA                     l1727:	
  2006                           
  2007                           ;picMaestro.c: 216: }
  2008                           ;picMaestro.c: 217: if (n_mensaje==4){
  2009  01FA  3004               	movlw	4
  2010  01FB  067D               	xorwf	_n_mensaje,w
  2011  01FC  1D03               	btfss	3,2
  2012  01FD  2A45               	goto	l1743
  2013                           
  2014                           ;picMaestro.c: 218: n_mensaje=0;
  2015  01FE  01FD               	clrf	_n_mensaje
  2016                           
  2017                           ;picMaestro.c: 219: cont=0;
  2018  01FF  1683               	bsf	3,5	;RP0=1, select bank1
  2019  0200  1303               	bcf	3,6	;RP1=0, select bank1
  2020  0201  01A4               	clrf	_cont^(0+128)
  2021  0202  01A5               	clrf	(_cont+1)^(0+128)
  2022                           
  2023                           ;picMaestro.c: 221: LCD_t8(0b0000000001);
  2024  0203  3001               	movlw	1
  2025  0204  1283               	bcf	3,5	;RP0=0, select bank0
  2026  0205  1303               	bcf	3,6	;RP1=0, select bank0
  2027  0206  00A2               	movwf	LCD_t8@i
  2028  0207  3000               	movlw	0
  2029  0208  00A3               	movwf	LCD_t8@i+1
  2030  0209  120A  158A  264D  120A  118A  	fcall	_LCD_t8
  2031                           
  2032                           ;picMaestro.c: 222: _delay((unsigned long)((2)*(8000000/4000.0)));
  2033  020E  3006               	movlw	6
  2034  020F  1283               	bcf	3,5	;RP0=0, select bank0
  2035  0210  1303               	bcf	3,6	;RP1=0, select bank0
  2036  0211  00BC               	movwf	??_check_mensajes+1
  2037  0212  302F               	movlw	47
  2038  0213  00BB               	movwf	??_check_mensajes
  2039  0214                     u1747:	
  2040  0214  0BBB               	decfsz	??_check_mensajes,f
  2041  0215  2A14               	goto	u1747
  2042  0216  0BBC               	decfsz	??_check_mensajes+1,f
  2043  0217  2A14               	goto	u1747
  2044  0218  2A19               	nop2
  2045                           
  2046                           ;picMaestro.c: 224: LCD_t8((0b001<<7)|(0x00));
  2047  0219  3080               	movlw	128
  2048  021A  1283               	bcf	3,5	;RP0=0, select bank0
  2049  021B  1303               	bcf	3,6	;RP1=0, select bank0
  2050  021C  00A2               	movwf	LCD_t8@i
  2051  021D  3000               	movlw	0
  2052  021E  00A3               	movwf	LCD_t8@i+1
  2053  021F  120A  158A  264D  120A  118A  	fcall	_LCD_t8
  2054                           
  2055                           ;picMaestro.c: 225: LCD_WM("DESPACHO:");
  2056  0224  30A8               	movlw	(low ((STR_12-__stringbase)| (0+32768)))& (0+255)
  2057  0225  1283               	bcf	3,5	;RP0=0, select bank0
  2058  0226  1303               	bcf	3,6	;RP1=0, select bank0
  2059  0227  00A7               	movwf	LCD_WM@c
  2060  0228  3080               	movlw	128
  2061  0229  00A8               	movwf	LCD_WM@c+1
  2062  022A  120A  158A  254E  120A  118A  	fcall	_LCD_WM
  2063                           
  2064                           ;picMaestro.c: 227: LCD_t8((0b001<<7)|(0x40));
  2065  022F  30C0               	movlw	192
  2066  0230  1283               	bcf	3,5	;RP0=0, select bank0
  2067  0231  1303               	bcf	3,6	;RP1=0, select bank0
  2068  0232  00A2               	movwf	LCD_t8@i
  2069  0233  3000               	movlw	0
  2070  0234  00A3               	movwf	LCD_t8@i+1
  2071  0235  120A  158A  264D  120A  118A  	fcall	_LCD_t8
  2072                           
  2073                           ;picMaestro.c: 228: LCD_WM("Tortrix");
  2074  023A  30D5               	movlw	(low ((STR_13-__stringbase)| (0+32768)))& (0+255)
  2075  023B  1283               	bcf	3,5	;RP0=0, select bank0
  2076  023C  1303               	bcf	3,6	;RP1=0, select bank0
  2077  023D  00A7               	movwf	LCD_WM@c
  2078  023E  3080               	movlw	128
  2079  023F  00A8               	movwf	LCD_WM@c+1
  2080  0240  120A  158A  254E  120A  118A  	fcall	_LCD_WM
  2081  0245                     l1743:	
  2082                           
  2083                           ;picMaestro.c: 229: }
  2084                           ;picMaestro.c: 230: if (n_mensaje==5){
  2085  0245  3005               	movlw	5
  2086  0246  067D               	xorwf	_n_mensaje,w
  2087  0247  1D03               	btfss	3,2
  2088  0248  2A90               	goto	l1759
  2089                           
  2090                           ;picMaestro.c: 231: n_mensaje=0;
  2091  0249  01FD               	clrf	_n_mensaje
  2092                           
  2093                           ;picMaestro.c: 232: cont=0;
  2094  024A  1683               	bsf	3,5	;RP0=1, select bank1
  2095  024B  1303               	bcf	3,6	;RP1=0, select bank1
  2096  024C  01A4               	clrf	_cont^(0+128)
  2097  024D  01A5               	clrf	(_cont+1)^(0+128)
  2098                           
  2099                           ;picMaestro.c: 234: LCD_t8(0b0000000001);
  2100  024E  3001               	movlw	1
  2101  024F  1283               	bcf	3,5	;RP0=0, select bank0
  2102  0250  1303               	bcf	3,6	;RP1=0, select bank0
  2103  0251  00A2               	movwf	LCD_t8@i
  2104  0252  3000               	movlw	0
  2105  0253  00A3               	movwf	LCD_t8@i+1
  2106  0254  120A  158A  264D  120A  118A  	fcall	_LCD_t8
  2107                           
  2108                           ;picMaestro.c: 235: _delay((unsigned long)((2)*(8000000/4000.0)));
  2109  0259  3006               	movlw	6
  2110  025A  1283               	bcf	3,5	;RP0=0, select bank0
  2111  025B  1303               	bcf	3,6	;RP1=0, select bank0
  2112  025C  00BC               	movwf	??_check_mensajes+1
  2113  025D  302F               	movlw	47
  2114  025E  00BB               	movwf	??_check_mensajes
  2115  025F                     u1757:	
  2116  025F  0BBB               	decfsz	??_check_mensajes,f
  2117  0260  2A5F               	goto	u1757
  2118  0261  0BBC               	decfsz	??_check_mensajes+1,f
  2119  0262  2A5F               	goto	u1757
  2120  0263  2A64               	nop2
  2121                           
  2122                           ;picMaestro.c: 237: LCD_t8((0b001<<7)|(0x00));
  2123  0264  3080               	movlw	128
  2124  0265  1283               	bcf	3,5	;RP0=0, select bank0
  2125  0266  1303               	bcf	3,6	;RP1=0, select bank0
  2126  0267  00A2               	movwf	LCD_t8@i
  2127  0268  3000               	movlw	0
  2128  0269  00A3               	movwf	LCD_t8@i+1
  2129  026A  120A  158A  264D  120A  118A  	fcall	_LCD_t8
  2130                           
  2131                           ;picMaestro.c: 238: LCD_WM("CAMBIO DE LUCES:");
  2132  026F  302D               	movlw	(low ((STR_14-__stringbase)| (0+32768)))& (0+255)
  2133  0270  1283               	bcf	3,5	;RP0=0, select bank0
  2134  0271  1303               	bcf	3,6	;RP1=0, select bank0
  2135  0272  00A7               	movwf	LCD_WM@c
  2136  0273  3080               	movlw	128
  2137  0274  00A8               	movwf	LCD_WM@c+1
  2138  0275  120A  158A  254E  120A  118A  	fcall	_LCD_WM
  2139                           
  2140                           ;picMaestro.c: 240: LCD_t8((0b001<<7)|(0x40));
  2141  027A  30C0               	movlw	192
  2142  027B  1283               	bcf	3,5	;RP0=0, select bank0
  2143  027C  1303               	bcf	3,6	;RP1=0, select bank0
  2144  027D  00A2               	movwf	LCD_t8@i
  2145  027E  3000               	movlw	0
  2146  027F  00A3               	movwf	LCD_t8@i+1
  2147  0280  120A  158A  264D  120A  118A  	fcall	_LCD_t8
  2148                           
  2149                           ;picMaestro.c: 241: LCD_WM("1,2,3,4,5,6.EXIT");
  2150  0285  304F               	movlw	(low ((STR_15-__stringbase)| (0+32768)))& (0+255)
  2151  0286  1283               	bcf	3,5	;RP0=0, select bank0
  2152  0287  1303               	bcf	3,6	;RP1=0, select bank0
  2153  0288  00A7               	movwf	LCD_WM@c
  2154  0289  3080               	movlw	128
  2155  028A  00A8               	movwf	LCD_WM@c+1
  2156  028B  120A  158A  254E  120A  118A  	fcall	_LCD_WM
  2157  0290                     l1759:	
  2158                           
  2159                           ;picMaestro.c: 242: }
  2160                           ;picMaestro.c: 243: if (n_mensaje==6){
  2161  0290  3006               	movlw	6
  2162  0291  067D               	xorwf	_n_mensaje,w
  2163  0292  1D03               	btfss	3,2
  2164  0293  2ADB               	goto	l1775
  2165                           
  2166                           ;picMaestro.c: 244: n_mensaje=0;
  2167  0294  01FD               	clrf	_n_mensaje
  2168                           
  2169                           ;picMaestro.c: 245: cont=0;
  2170  0295  1683               	bsf	3,5	;RP0=1, select bank1
  2171  0296  1303               	bcf	3,6	;RP1=0, select bank1
  2172  0297  01A4               	clrf	_cont^(0+128)
  2173  0298  01A5               	clrf	(_cont+1)^(0+128)
  2174                           
  2175                           ;picMaestro.c: 247: LCD_t8(0b0000000001);
  2176  0299  3001               	movlw	1
  2177  029A  1283               	bcf	3,5	;RP0=0, select bank0
  2178  029B  1303               	bcf	3,6	;RP1=0, select bank0
  2179  029C  00A2               	movwf	LCD_t8@i
  2180  029D  3000               	movlw	0
  2181  029E  00A3               	movwf	LCD_t8@i+1
  2182  029F  120A  158A  264D  120A  118A  	fcall	_LCD_t8
  2183                           
  2184                           ;picMaestro.c: 248: _delay((unsigned long)((2)*(8000000/4000.0)));
  2185  02A4  3006               	movlw	6
  2186  02A5  1283               	bcf	3,5	;RP0=0, select bank0
  2187  02A6  1303               	bcf	3,6	;RP1=0, select bank0
  2188  02A7  00BC               	movwf	??_check_mensajes+1
  2189  02A8  302F               	movlw	47
  2190  02A9  00BB               	movwf	??_check_mensajes
  2191  02AA                     u1767:	
  2192  02AA  0BBB               	decfsz	??_check_mensajes,f
  2193  02AB  2AAA               	goto	u1767
  2194  02AC  0BBC               	decfsz	??_check_mensajes+1,f
  2195  02AD  2AAA               	goto	u1767
  2196  02AE  2AAF               	nop2
  2197                           
  2198                           ;picMaestro.c: 250: LCD_t8((0b001<<7)|(0x00));
  2199  02AF  3080               	movlw	128
  2200  02B0  1283               	bcf	3,5	;RP0=0, select bank0
  2201  02B1  1303               	bcf	3,6	;RP1=0, select bank0
  2202  02B2  00A2               	movwf	LCD_t8@i
  2203  02B3  3000               	movlw	0
  2204  02B4  00A3               	movwf	LCD_t8@i+1
  2205  02B5  120A  158A  264D  120A  118A  	fcall	_LCD_t8
  2206                           
  2207                           ;picMaestro.c: 251: LCD_WM("MOVER PUERTA:");
  2208  02BA  308D               	movlw	(low ((STR_16-__stringbase)| (0+32768)))& (0+255)
  2209  02BB  1283               	bcf	3,5	;RP0=0, select bank0
  2210  02BC  1303               	bcf	3,6	;RP1=0, select bank0
  2211  02BD  00A7               	movwf	LCD_WM@c
  2212  02BE  3080               	movlw	128
  2213  02BF  00A8               	movwf	LCD_WM@c+1
  2214  02C0  120A  158A  254E  120A  118A  	fcall	_LCD_WM
  2215                           
  2216                           ;picMaestro.c: 253: LCD_t8((0b001<<7)|(0x40));
  2217  02C5  30C0               	movlw	192
  2218  02C6  1283               	bcf	3,5	;RP0=0, select bank0
  2219  02C7  1303               	bcf	3,6	;RP1=0, select bank0
  2220  02C8  00A2               	movwf	LCD_t8@i
  2221  02C9  3000               	movlw	0
  2222  02CA  00A3               	movwf	LCD_t8@i+1
  2223  02CB  120A  158A  264D  120A  118A  	fcall	_LCD_t8
  2224                           
  2225                           ;picMaestro.c: 254: LCD_WM("1.OP 2.CL 6.EXIT");
  2226  02D0  303E               	movlw	(low ((STR_17-__stringbase)| (0+32768)))& (0+255)
  2227  02D1  1283               	bcf	3,5	;RP0=0, select bank0
  2228  02D2  1303               	bcf	3,6	;RP1=0, select bank0
  2229  02D3  00A7               	movwf	LCD_WM@c
  2230  02D4  3080               	movlw	128
  2231  02D5  00A8               	movwf	LCD_WM@c+1
  2232  02D6  120A  158A  254E  120A  118A  	fcall	_LCD_WM
  2233  02DB                     l1775:	
  2234                           
  2235                           ;picMaestro.c: 255: }
  2236                           ;picMaestro.c: 256: if (n_mensaje==7){
  2237  02DB  3007               	movlw	7
  2238  02DC  067D               	xorwf	_n_mensaje,w
  2239  02DD  1D03               	btfss	3,2
  2240  02DE  2B6A               	goto	l1799
  2241                           
  2242                           ;picMaestro.c: 257: n_mensaje=0;
  2243  02DF  01FD               	clrf	_n_mensaje
  2244                           
  2245                           ;picMaestro.c: 258: cont=0;
  2246  02E0  1683               	bsf	3,5	;RP0=1, select bank1
  2247  02E1  1303               	bcf	3,6	;RP1=0, select bank1
  2248  02E2  01A4               	clrf	_cont^(0+128)
  2249  02E3  01A5               	clrf	(_cont+1)^(0+128)
  2250                           
  2251                           ;picMaestro.c: 260: LCD_t8(0b0000000001);
  2252  02E4  3001               	movlw	1
  2253  02E5  1283               	bcf	3,5	;RP0=0, select bank0
  2254  02E6  1303               	bcf	3,6	;RP1=0, select bank0
  2255  02E7  00A2               	movwf	LCD_t8@i
  2256  02E8  3000               	movlw	0
  2257  02E9  00A3               	movwf	LCD_t8@i+1
  2258  02EA  120A  158A  264D  120A  118A  	fcall	_LCD_t8
  2259                           
  2260                           ;picMaestro.c: 261: _delay((unsigned long)((2)*(8000000/4000.0)));
  2261  02EF  3006               	movlw	6
  2262  02F0  1283               	bcf	3,5	;RP0=0, select bank0
  2263  02F1  1303               	bcf	3,6	;RP1=0, select bank0
  2264  02F2  00BC               	movwf	??_check_mensajes+1
  2265  02F3  302F               	movlw	47
  2266  02F4  00BB               	movwf	??_check_mensajes
  2267  02F5                     u1777:	
  2268  02F5  0BBB               	decfsz	??_check_mensajes,f
  2269  02F6  2AF5               	goto	u1777
  2270  02F7  0BBC               	decfsz	??_check_mensajes+1,f
  2271  02F8  2AF5               	goto	u1777
  2272  02F9  2AFA               	nop2
  2273                           
  2274                           ;picMaestro.c: 264: LCD_t8((0b001<<7)|(0x00));
  2275  02FA  3080               	movlw	128
  2276  02FB  1283               	bcf	3,5	;RP0=0, select bank0
  2277  02FC  1303               	bcf	3,6	;RP1=0, select bank0
  2278  02FD  00A2               	movwf	LCD_t8@i
  2279  02FE  3000               	movlw	0
  2280  02FF  00A3               	movwf	LCD_t8@i+1
  2281  0300  120A  158A  264D  120A  118A  	fcall	_LCD_t8
  2282                           
  2283                           ;picMaestro.c: 265: LCD_WM("Tampicos=");
  2284  0305  30B2               	movlw	(low ((STR_18-__stringbase)| (0+32768)))& (0+255)
  2285  0306  1283               	bcf	3,5	;RP0=0, select bank0
  2286  0307  1303               	bcf	3,6	;RP1=0, select bank0
  2287  0308  00A7               	movwf	LCD_WM@c
  2288  0309  3080               	movlw	128
  2289  030A  00A8               	movwf	LCD_WM@c+1
  2290  030B  120A  158A  254E  120A  118A  	fcall	_LCD_WM
  2291                           
  2292                           ;picMaestro.c: 266: char str_int[8];
  2293                           ;picMaestro.c: 267: sprintf(str_int, "%d", tampicos);
  2294  0310  30E9               	movlw	(low ((STR_5-__stringbase)| (0+32768)))& (0+255)
  2295  0311  1283               	bcf	3,5	;RP0=0, select bank0
  2296  0312  1303               	bcf	3,6	;RP1=0, select bank0
  2297  0313  00BB               	movwf	??_check_mensajes
  2298  0314  083B               	movf	??_check_mensajes,w
  2299  0315  00AE               	movwf	sprintf@f
  2300  0316  1683               	bsf	3,5	;RP0=1, select bank1
  2301  0317  1303               	bcf	3,6	;RP1=0, select bank1
  2302  0318  0827               	movf	_tampicos^(0+128),w
  2303  0319  1283               	bcf	3,5	;RP0=0, select bank0
  2304  031A  1303               	bcf	3,6	;RP1=0, select bank0
  2305  031B  00BC               	movwf	??_check_mensajes+1
  2306  031C  01BD               	clrf	??_check_mensajes+2
  2307  031D  083C               	movf	??_check_mensajes+1,w
  2308  031E  00AF               	movwf	?_sprintf+1
  2309  031F  083D               	movf	??_check_mensajes+2,w
  2310  0320  00B0               	movwf	?_sprintf+2
  2311  0321  3044               	movlw	(low (check_mensajes@str_int| 0))& (0+255)
  2312  0322  120A  158A  272A  120A  118A  	fcall	_sprintf
  2313                           
  2314                           ;picMaestro.c: 268: LCD_WM(str_int);
  2315  0327  3044               	movlw	(low (check_mensajes@str_int| 0))& (0+255)
  2316  0328  1283               	bcf	3,5	;RP0=0, select bank0
  2317  0329  1303               	bcf	3,6	;RP1=0, select bank0
  2318  032A  00A7               	movwf	LCD_WM@c
  2319  032B  3000               	movlw	0
  2320  032C  00A8               	movwf	LCD_WM@c+1
  2321  032D  120A  158A  254E  120A  118A  	fcall	_LCD_WM
  2322                           
  2323                           ;picMaestro.c: 271: LCD_t8((0b001<<7)|(0x40));
  2324  0332  30C0               	movlw	192
  2325  0333  1283               	bcf	3,5	;RP0=0, select bank0
  2326  0334  1303               	bcf	3,6	;RP1=0, select bank0
  2327  0335  00A2               	movwf	LCD_t8@i
  2328  0336  3000               	movlw	0
  2329  0337  00A3               	movwf	LCD_t8@i+1
  2330  0338  120A  158A  264D  120A  118A  	fcall	_LCD_t8
  2331                           
  2332                           ;picMaestro.c: 272: LCD_WM("Tortrix=");
  2333  033D  30BC               	movlw	(low ((STR_20-__stringbase)| (0+32768)))& (0+255)
  2334  033E  1283               	bcf	3,5	;RP0=0, select bank0
  2335  033F  1303               	bcf	3,6	;RP1=0, select bank0
  2336  0340  00A7               	movwf	LCD_WM@c
  2337  0341  3080               	movlw	128
  2338  0342  00A8               	movwf	LCD_WM@c+1
  2339  0343  120A  158A  254E  120A  118A  	fcall	_LCD_WM
  2340                           
  2341                           ;picMaestro.c: 273: char str_int[8];
  2342                           ;picMaestro.c: 274: sprintf(str_int, "%d", tortrix);
  2343  0348  30E9               	movlw	(low ((STR_5-__stringbase)| (0+32768)))& (0+255)
  2344  0349  1283               	bcf	3,5	;RP0=0, select bank0
  2345  034A  1303               	bcf	3,6	;RP1=0, select bank0
  2346  034B  00BB               	movwf	??_check_mensajes
  2347  034C  083B               	movf	??_check_mensajes,w
  2348  034D  00AE               	movwf	sprintf@f
  2349  034E  1683               	bsf	3,5	;RP0=1, select bank1
  2350  034F  1303               	bcf	3,6	;RP1=0, select bank1
  2351  0350  0828               	movf	_tortrix^(0+128),w
  2352  0351  1283               	bcf	3,5	;RP0=0, select bank0
  2353  0352  1303               	bcf	3,6	;RP1=0, select bank0
  2354  0353  00BC               	movwf	??_check_mensajes+1
  2355  0354  01BD               	clrf	??_check_mensajes+2
  2356  0355  083C               	movf	??_check_mensajes+1,w
  2357  0356  00AF               	movwf	?_sprintf+1
  2358  0357  083D               	movf	??_check_mensajes+2,w
  2359  0358  00B0               	movwf	?_sprintf+2
  2360  0359  3044               	movlw	(low (check_mensajes@str_int| 0))& (0+255)
  2361  035A  120A  158A  272A  120A  118A  	fcall	_sprintf
  2362                           
  2363                           ;picMaestro.c: 275: LCD_WM(str_int);
  2364  035F  3044               	movlw	(low (check_mensajes@str_int| 0))& (0+255)
  2365  0360  1283               	bcf	3,5	;RP0=0, select bank0
  2366  0361  1303               	bcf	3,6	;RP1=0, select bank0
  2367  0362  00A7               	movwf	LCD_WM@c
  2368  0363  3000               	movlw	0
  2369  0364  00A8               	movwf	LCD_WM@c+1
  2370  0365  120A  158A  254E  120A  118A  	fcall	_LCD_WM
  2371  036A                     l1799:	
  2372                           
  2373                           ;picMaestro.c: 276: }
  2374                           ;picMaestro.c: 277: if (n_mensaje==8){
  2375  036A  3008               	movlw	8
  2376  036B  067D               	xorwf	_n_mensaje,w
  2377  036C  1D03               	btfss	3,2
  2378  036D  0008               	return
  2379                           
  2380                           ;picMaestro.c: 278: n_mensaje=0;
  2381  036E  01FD               	clrf	_n_mensaje
  2382                           
  2383                           ;picMaestro.c: 279: cont=0;
  2384  036F  1683               	bsf	3,5	;RP0=1, select bank1
  2385  0370  1303               	bcf	3,6	;RP1=0, select bank1
  2386  0371  01A4               	clrf	_cont^(0+128)
  2387  0372  01A5               	clrf	(_cont+1)^(0+128)
  2388                           
  2389                           ;picMaestro.c: 281: LCD_t8(0b0000000001);
  2390  0373  3001               	movlw	1
  2391  0374  1283               	bcf	3,5	;RP0=0, select bank0
  2392  0375  1303               	bcf	3,6	;RP1=0, select bank0
  2393  0376  00A2               	movwf	LCD_t8@i
  2394  0377  3000               	movlw	0
  2395  0378  00A3               	movwf	LCD_t8@i+1
  2396  0379  120A  158A  264D  120A  118A  	fcall	_LCD_t8
  2397                           
  2398                           ;picMaestro.c: 282: _delay((unsigned long)((2)*(8000000/4000.0)));
  2399  037E  3006               	movlw	6
  2400  037F  1283               	bcf	3,5	;RP0=0, select bank0
  2401  0380  1303               	bcf	3,6	;RP1=0, select bank0
  2402  0381  00BC               	movwf	??_check_mensajes+1
  2403  0382  302F               	movlw	47
  2404  0383  00BB               	movwf	??_check_mensajes
  2405  0384                     u1787:	
  2406  0384  0BBB               	decfsz	??_check_mensajes,f
  2407  0385  2B84               	goto	u1787
  2408  0386  0BBC               	decfsz	??_check_mensajes+1,f
  2409  0387  2B84               	goto	u1787
  2410  0388  2B89               	nop2
  2411                           
  2412                           ;picMaestro.c: 284: LCD_t8((0b001<<7)|(0x00));
  2413  0389  3080               	movlw	128
  2414  038A  1283               	bcf	3,5	;RP0=0, select bank0
  2415  038B  1303               	bcf	3,6	;RP1=0, select bank0
  2416  038C  00A2               	movwf	LCD_t8@i
  2417  038D  3000               	movlw	0
  2418  038E  00A3               	movwf	LCD_t8@i+1
  2419  038F  120A  158A  264D  120A  118A  	fcall	_LCD_t8
  2420                           
  2421                           ;picMaestro.c: 285: LCD_WM("DINERO MONEDERO:");
  2422  0394  301C               	movlw	(low ((STR_22-__stringbase)| (0+32768)))& (0+255)
  2423  0395  1283               	bcf	3,5	;RP0=0, select bank0
  2424  0396  1303               	bcf	3,6	;RP1=0, select bank0
  2425  0397  00A7               	movwf	LCD_WM@c
  2426  0398  3080               	movlw	128
  2427  0399  00A8               	movwf	LCD_WM@c+1
  2428  039A  120A  158A  254E  120A  118A  	fcall	_LCD_WM
  2429                           
  2430                           ;picMaestro.c: 287: LCD_t8((0b001<<7)|(0x40));
  2431  039F  30C0               	movlw	192
  2432  03A0  1283               	bcf	3,5	;RP0=0, select bank0
  2433  03A1  1303               	bcf	3,6	;RP1=0, select bank0
  2434  03A2  00A2               	movwf	LCD_t8@i
  2435  03A3  3000               	movlw	0
  2436  03A4  00A3               	movwf	LCD_t8@i+1
  2437  03A5  120A  158A  264D  120A  118A  	fcall	_LCD_t8
  2438                           
  2439                           ;picMaestro.c: 288: LCD_WM("--> ");
  2440  03AA  30E4               	movlw	(low ((STR_4-__stringbase)| (0+32768)))& (0+255)
  2441  03AB  1283               	bcf	3,5	;RP0=0, select bank0
  2442  03AC  1303               	bcf	3,6	;RP1=0, select bank0
  2443  03AD  00A7               	movwf	LCD_WM@c
  2444  03AE  3080               	movlw	128
  2445  03AF  00A8               	movwf	LCD_WM@c+1
  2446  03B0  120A  158A  254E  120A  118A  	fcall	_LCD_WM
  2447                           
  2448                           ;picMaestro.c: 291: char str_dinero[8];
  2449                           ;picMaestro.c: 292: char str_dinero2[8];
  2450                           ;picMaestro.c: 293: sprintf(str_dinero, "%d", dineroT);
  2451  03B5  30E9               	movlw	(low ((STR_5-__stringbase)| (0+32768)))& (0+255)
  2452  03B6  1283               	bcf	3,5	;RP0=0, select bank0
  2453  03B7  1303               	bcf	3,6	;RP1=0, select bank0
  2454  03B8  00BB               	movwf	??_check_mensajes
  2455  03B9  083B               	movf	??_check_mensajes,w
  2456  03BA  00AE               	movwf	sprintf@f
  2457  03BB  1683               	bsf	3,5	;RP0=1, select bank1
  2458  03BC  1303               	bcf	3,6	;RP1=0, select bank1
  2459  03BD  0821               	movf	(_dineroT+1)^(0+128),w
  2460  03BE  1283               	bcf	3,5	;RP0=0, select bank0
  2461  03BF  1303               	bcf	3,6	;RP1=0, select bank0
  2462  03C0  00B0               	movwf	?_sprintf+2
  2463  03C1  1683               	bsf	3,5	;RP0=1, select bank1
  2464  03C2  1303               	bcf	3,6	;RP1=0, select bank1
  2465  03C3  0820               	movf	_dineroT^(0+128),w
  2466  03C4  1283               	bcf	3,5	;RP0=0, select bank0
  2467  03C5  1303               	bcf	3,6	;RP1=0, select bank0
  2468  03C6  00AF               	movwf	?_sprintf+1
  2469  03C7  3054               	movlw	(low (check_mensajes@str_dinero_444| 0))& (0+255)
  2470  03C8  120A  158A  272A  120A  118A  	fcall	_sprintf
  2471                           
  2472                           ;picMaestro.c: 294: sprintf(str_dinero2, "%d", dineroT);
  2473  03CD  30E9               	movlw	(low ((STR_5-__stringbase)| (0+32768)))& (0+255)
  2474  03CE  1283               	bcf	3,5	;RP0=0, select bank0
  2475  03CF  1303               	bcf	3,6	;RP1=0, select bank0
  2476  03D0  00BB               	movwf	??_check_mensajes
  2477  03D1  083B               	movf	??_check_mensajes,w
  2478  03D2  00AE               	movwf	sprintf@f
  2479  03D3  1683               	bsf	3,5	;RP0=1, select bank1
  2480  03D4  1303               	bcf	3,6	;RP1=0, select bank1
  2481  03D5  0821               	movf	(_dineroT+1)^(0+128),w
  2482  03D6  1283               	bcf	3,5	;RP0=0, select bank0
  2483  03D7  1303               	bcf	3,6	;RP1=0, select bank0
  2484  03D8  00B0               	movwf	?_sprintf+2
  2485  03D9  1683               	bsf	3,5	;RP0=1, select bank1
  2486  03DA  1303               	bcf	3,6	;RP1=0, select bank1
  2487  03DB  0820               	movf	_dineroT^(0+128),w
  2488  03DC  1283               	bcf	3,5	;RP0=0, select bank0
  2489  03DD  1303               	bcf	3,6	;RP1=0, select bank0
  2490  03DE  00AF               	movwf	?_sprintf+1
  2491  03DF  3064               	movlw	(low (check_mensajes@str_dinero2_445| 0))& (0+255)
  2492  03E0  120A  158A  272A  120A  118A  	fcall	_sprintf
  2493                           
  2494                           ;picMaestro.c: 296: char i;
  2495                           ;picMaestro.c: 297: for(i = 0; str_dinero[i] != '\0'; ++i);
  2496  03E5  1283               	bcf	3,5	;RP0=0, select bank0
  2497  03E6  1303               	bcf	3,6	;RP1=0, select bank0
  2498  03E7  01ED               	clrf	check_mensajes@i_448
  2499  03E8                     l1823:	
  2500  03E8  086D               	movf	check_mensajes@i_448,w
  2501  03E9  3E54               	addlw	(low (check_mensajes@str_dinero_444| 0))& (0+255)
  2502  03EA  0084               	movwf	4
  2503  03EB  1383               	bcf	3,7	;select IRP bank0
  2504  03EC  0800               	movf	0,w
  2505  03ED  1903               	btfsc	3,2
  2506  03EE  2BF4               	goto	l1825
  2507  03EF  3001               	movlw	1
  2508  03F0  00BB               	movwf	??_check_mensajes
  2509  03F1  083B               	movf	??_check_mensajes,w
  2510  03F2  07ED               	addwf	check_mensajes@i_448,f
  2511  03F3  2BE8               	goto	l1823
  2512  03F4                     l1825:	
  2513                           
  2514                           ;picMaestro.c: 298: if (i==2){str_dinero2[0]='0';str_dinero2[1]='\0';}
  2515  03F4  3002               	movlw	2
  2516  03F5  066D               	xorwf	check_mensajes@i_448,w
  2517  03F6  1D03               	btfss	3,2
  2518  03F7  2BFD               	goto	l1831
  2519  03F8  3030               	movlw	48
  2520  03F9  00BB               	movwf	??_check_mensajes
  2521  03FA  083B               	movf	??_check_mensajes,w
  2522  03FB  00E4               	movwf	check_mensajes@str_dinero2_445
  2523  03FC  01E5               	clrf	check_mensajes@str_dinero2_445+1
  2524  03FD                     l1831:	
  2525                           
  2526                           ;picMaestro.c: 299: if (i>2){str_dinero2[i-2]='\0';}
  2527  03FD  3003               	movlw	3
  2528  03FE  026D               	subwf	check_mensajes@i_448,w
  2529  03FF  1C03               	skipc
  2530  0400  2C06               	goto	l1835
  2531  0401  086D               	movf	check_mensajes@i_448,w
  2532  0402  3EFE               	addlw	254
  2533  0403  3E64               	addlw	(low (check_mensajes@str_dinero2_445| 0))& (0+255)
  2534  0404  0084               	movwf	4
  2535  0405  0180               	clrf	0
  2536  0406                     l1835:	
  2537                           
  2538                           ;picMaestro.c: 300: LCD_WM(str_dinero2);
  2539  0406  3064               	movlw	(low (check_mensajes@str_dinero2_445| 0))& (0+255)
  2540  0407  00A7               	movwf	LCD_WM@c
  2541  0408  3000               	movlw	0
  2542  0409  00A8               	movwf	LCD_WM@c+1
  2543  040A  120A  158A  254E  120A  118A  	fcall	_LCD_WM
  2544                           
  2545                           ;picMaestro.c: 302: LCD_W('.');LCD_W(str_dinero[i-2]);LCD_W(str_dinero[i-1]);LCD_W('Q');
  2546  040F  302E               	movlw	46
  2547  0410  120A  158A  2578  120A  118A  	fcall	_LCD_W
  2548  0415  1283               	bcf	3,5	;RP0=0, select bank0
  2549  0416  1303               	bcf	3,6	;RP1=0, select bank0
  2550  0417  086D               	movf	check_mensajes@i_448,w
  2551  0418  3EFE               	addlw	254
  2552  0419  3E54               	addlw	(low (check_mensajes@str_dinero_444| 0))& (0+255)
  2553  041A  0084               	movwf	4
  2554  041B  1383               	bcf	3,7	;select IRP bank0
  2555  041C  0800               	movf	0,w
  2556  041D  120A  158A  2578  120A  118A  	fcall	_LCD_W
  2557  0422  1283               	bcf	3,5	;RP0=0, select bank0
  2558  0423  1303               	bcf	3,6	;RP1=0, select bank0
  2559  0424  086D               	movf	check_mensajes@i_448,w
  2560  0425  3EFF               	addlw	255
  2561  0426  3E54               	addlw	(low (check_mensajes@str_dinero_444| 0))& (0+255)
  2562  0427  0084               	movwf	4
  2563  0428  1383               	bcf	3,7	;select IRP bank0
  2564  0429  0800               	movf	0,w
  2565  042A  120A  158A  2578  120A  118A  	fcall	_LCD_W
  2566  042F  3051               	movlw	81
  2567  0430  120A  158A  2578   	fcall	_LCD_W
  2568  0433  0008               	return
  2569  0434                     __end_of_check_mensajes:	
  2570                           
  2571                           	psect	text4
  2572  0F2A                     __ptext4:	
  2573 ;; *************** function _sprintf *****************
  2574 ;; Defined at:
  2575 ;;		line 492 in file "C:\Program Files (x86)\Microchip\xc8\v1.41\sources\common\doprnt.c"
  2576 ;; Parameters:    Size  Location     Type
  2577 ;;  sp              1    wreg     PTR unsigned char 
  2578 ;;		 -> check_mensajes@str_dinero2_445(8), check_mensajes@str_dinero_444(8), check_mensajes@str_int(8), check_mensajes@s
      +tr_dinero2(8), 
  2579 ;;		 -> check_mensajes@str_dinero(8), check_mensajes@str_temperatura(6), 
  2580 ;;  f               1   14[BANK0 ] PTR const unsigned char 
  2581 ;;		 -> STR_25(3), STR_24(3), STR_21(3), STR_19(3), 
  2582 ;;		 -> STR_9(3), STR_8(3), STR_5(3), 
  2583 ;; Auto vars:     Size  Location     Type
  2584 ;;  sp              1   25[BANK0 ] PTR unsigned char 
  2585 ;;		 -> check_mensajes@str_dinero2_445(8), check_mensajes@str_dinero_444(8), check_mensajes@str_int(8), check_mensajes@s
      +tr_dinero2(8), 
  2586 ;;		 -> check_mensajes@str_dinero(8), check_mensajes@str_temperatura(6), 
  2587 ;;  tmpval          4    0        struct .
  2588 ;;  val             2   23[BANK0 ] unsigned int 
  2589 ;;  cp              2    0        PTR const unsigned char 
  2590 ;;  len             2    0        unsigned int 
  2591 ;;  c               1   26[BANK0 ] char 
  2592 ;;  prec            1   22[BANK0 ] char 
  2593 ;;  flag            1   21[BANK0 ] unsigned char 
  2594 ;;  ap              1   20[BANK0 ] PTR void [1]
  2595 ;;		 -> ?_sprintf(2), 
  2596 ;; Return value:  Size  Location     Type
  2597 ;;                  2   14[BANK0 ] int 
  2598 ;; Registers used:
  2599 ;;		wreg, fsr0l, fsr0h, status,2, status,0, btemp+1, pclath, cstack
  2600 ;; Tracked objects:
  2601 ;;		On entry : 0/0
  2602 ;;		On exit  : 0/0
  2603 ;;		Unchanged: 0/0
  2604 ;; Data sizes:     COMMON   BANK0   BANK1   BANK3   BANK2
  2605 ;;      Params:         0       3       0       0       0
  2606 ;;      Locals:         0       7       0       0       0
  2607 ;;      Temps:          0       3       0       0       0
  2608 ;;      Totals:         0      13       0       0       0
  2609 ;;Total ram usage:       13 bytes
  2610 ;; Hardware stack levels used:    1
  2611 ;; Hardware stack levels required when called:    4
  2612 ;; This function calls:
  2613 ;;		___lwdiv
  2614 ;;		___lwmod
  2615 ;; This function is called by:
  2616 ;;		_check_mensajes
  2617 ;; This function uses a non-reentrant model
  2618 ;;
  2619                           
  2620                           
  2621                           ;psect for function _sprintf
  2622  0F2A                     _sprintf:	
  2623                           
  2624                           ;incstack = 0
  2625                           ; Regs used in _sprintf: [wreg-fsr0h+status,2+status,0+btemp+1+pclath+cstack]
  2626                           ;sprintf@sp stored from wreg
  2627  0F2A  1283               	bcf	3,5	;RP0=0, select bank0
  2628  0F2B  1303               	bcf	3,6	;RP1=0, select bank0
  2629  0F2C  00B9               	movwf	sprintf@sp
  2630                           
  2631                           ;doprnt.c: 494: va_list ap;
  2632                           ;doprnt.c: 499: signed char c;
  2633                           ;doprnt.c: 506: signed char prec;
  2634                           ;doprnt.c: 508: unsigned char flag;
  2635                           ;doprnt.c: 523: union {
  2636                           ;doprnt.c: 524: unsigned long vd;
  2637                           ;doprnt.c: 525: double integ;
  2638                           ;doprnt.c: 526: } tmpval;
  2639                           ;doprnt.c: 528: unsigned int val;
  2640                           ;doprnt.c: 529: unsigned len;
  2641                           ;doprnt.c: 530: const char * cp;
  2642                           ;doprnt.c: 533: *ap = __va_start();
  2643  0F2D  302F               	movlw	(low ((?_sprintf| 0+1)))& (0+255)
  2644  0F2E  00B1               	movwf	??_sprintf
  2645  0F2F  0831               	movf	??_sprintf,w
  2646  0F30  00B4               	movwf	sprintf@ap
  2647  0F31                     l1601:	
  2648                           ;doprnt.c: 536: while(c = *f++) {
  2649                           
  2650  0F31  3001               	movlw	1
  2651  0F32  07AE               	addwf	sprintf@f,f
  2652  0F33  30FF               	movlw	-1
  2653  0F34  072E               	addwf	sprintf@f,w
  2654  0F35  0084               	movwf	4
  2655  0F36  120A  118A  260A  120A  158A  	fcall	stringdir
  2656  0F3B  00B1               	movwf	??_sprintf
  2657  0F3C  0831               	movf	??_sprintf,w
  2658  0F3D  00BA               	movwf	sprintf@c
  2659  0F3E  083A               	movf	sprintf@c,w
  2660  0F3F  1903               	btfsc	3,2
  2661  0F40  2FFB               	goto	l1603
  2662                           
  2663                           ;doprnt.c: 538: if(c != '%')
  2664  0F41  3025               	movlw	37
  2665  0F42  063A               	xorwf	sprintf@c,w
  2666  0F43  1903               	btfsc	3,2
  2667  0F44  2F51               	goto	l1557
  2668                           
  2669                           ;doprnt.c: 540: {
  2670                           ;doprnt.c: 541: ((*sp++ = (c)));
  2671  0F45  083A               	movf	sprintf@c,w
  2672  0F46  00B1               	movwf	??_sprintf
  2673  0F47  0839               	movf	sprintf@sp,w
  2674  0F48  0084               	movwf	4
  2675  0F49  0831               	movf	??_sprintf,w
  2676  0F4A  1383               	bcf	3,7	;select IRP bank0
  2677  0F4B  0080               	movwf	0
  2678  0F4C  3001               	movlw	1
  2679  0F4D  00B1               	movwf	??_sprintf
  2680  0F4E  0831               	movf	??_sprintf,w
  2681  0F4F  07B9               	addwf	sprintf@sp,f
  2682                           
  2683                           ;doprnt.c: 542: continue;
  2684  0F50  2F31               	goto	l1601
  2685  0F51                     l1557:	
  2686                           
  2687                           ;doprnt.c: 543: }
  2688                           ;doprnt.c: 548: flag = 0;
  2689  0F51  01B5               	clrf	sprintf@flag
  2690                           
  2691                           ;doprnt.c: 822: }
  2692                           
  2693                           ;doprnt.c: 813: continue;
  2694                           
  2695                           ;doprnt.c: 802: default:
  2696                           
  2697                           ;doprnt.c: 698: case 'i':
  2698                           ;doprnt.c: 699: break;
  2699                           
  2700                           ;doprnt.c: 697: case 'd':
  2701                           
  2702                           ;doprnt.c: 638: goto alldone;
  2703                           
  2704                           ;doprnt.c: 637: case 0:
  2705                           
  2706                           ;doprnt.c: 635: switch(c = *f++) {
  2707  0F52  3001               	movlw	1
  2708  0F53  07AE               	addwf	sprintf@f,f
  2709  0F54  30FF               	movlw	-1
  2710  0F55  072E               	addwf	sprintf@f,w
  2711  0F56  0084               	movwf	4
  2712  0F57  120A  118A  260A  120A  158A  	fcall	stringdir
  2713  0F5C  00BA               	movwf	sprintf@c
  2714                           
  2715                           ; Switch size 1, requested type "space"
  2716                           ; Number of cases is 3, Range of values is 0 to 105
  2717                           ; switch strategies available:
  2718                           ; Name         Instructions Cycles
  2719                           ; simple_byte           10     6 (average)
  2720                           ; jumptable            260     6 (fixed)
  2721                           ;	Chosen strategy is simple_byte
  2722  0F5D  3A00               	xorlw	0	; case 0
  2723  0F5E  1903               	skipnz
  2724  0F5F  2FFB               	goto	l1603
  2725  0F60  3A64               	xorlw	100	; case 100
  2726  0F61  1903               	skipnz
  2727  0F62  2F67               	goto	l1563
  2728  0F63  3A0D               	xorlw	13	; case 105
  2729  0F64  1903               	skipnz
  2730  0F65  2F67               	goto	l1563
  2731  0F66  2F31               	goto	l1601
  2732  0F67                     l1563:	
  2733                           
  2734                           ;doprnt.c: 1253: {
  2735                           ;doprnt.c: 1259: val = (int)(*(int *)__va_arg((*(int **)ap), (int)0));
  2736  0F67  0834               	movf	sprintf@ap,w
  2737  0F68  0084               	movwf	4
  2738  0F69  1383               	bcf	3,7	;select IRP bank0
  2739  0F6A  0800               	movf	0,w
  2740  0F6B  00B7               	movwf	sprintf@val
  2741  0F6C  0A84               	incf	4,f
  2742  0F6D  0800               	movf	0,w
  2743  0F6E  00B8               	movwf	sprintf@val+1
  2744  0F6F  3002               	movlw	2
  2745  0F70  00B1               	movwf	??_sprintf
  2746  0F71  0831               	movf	??_sprintf,w
  2747  0F72  07B4               	addwf	sprintf@ap,f
  2748                           
  2749                           ;doprnt.c: 1261: if((int)val < 0) {
  2750  0F73  1FB8               	btfss	sprintf@val+1,7
  2751  0F74  2F7E               	goto	l1573
  2752                           
  2753                           ;doprnt.c: 1262: flag |= 0x03;
  2754  0F75  3003               	movlw	3
  2755  0F76  00B1               	movwf	??_sprintf
  2756  0F77  0831               	movf	??_sprintf,w
  2757  0F78  04B5               	iorwf	sprintf@flag,f
  2758                           
  2759                           ;doprnt.c: 1263: val = -val;
  2760  0F79  09B7               	comf	sprintf@val,f
  2761  0F7A  09B8               	comf	sprintf@val+1,f
  2762  0F7B  0AB7               	incf	sprintf@val,f
  2763  0F7C  1903               	skipnz
  2764  0F7D  0AB8               	incf	sprintf@val+1,f
  2765  0F7E                     l1573:	
  2766                           
  2767                           ;doprnt.c: 1264: }
  2768                           ;doprnt.c: 1266: }
  2769                           ;doprnt.c: 1305: for(c = 1 ; c != sizeof dpowers/sizeof dpowers[0] ; c++)
  2770  0F7E  01BA               	clrf	sprintf@c
  2771  0F7F  0ABA               	incf	sprintf@c,f
  2772  0F80  3005               	movlw	5
  2773  0F81  063A               	xorwf	sprintf@c,w
  2774  0F82  1903               	btfsc	3,2
  2775  0F83  2FA5               	goto	l1585
  2776  0F84                     l1579:	
  2777                           
  2778                           ;doprnt.c: 1306: if(val < dpowers[c])
  2779  0F84  083A               	movf	sprintf@c,w
  2780  0F85  00B1               	movwf	??_sprintf
  2781  0F86  0731               	addwf	??_sprintf,w
  2782  0F87  3E01               	addlw	low ((_dpowers-__stringbase)| (0+32768))
  2783  0F88  0084               	movwf	4
  2784  0F89  120A  118A  260A  120A  158A  	fcall	stringdir
  2785  0F8E  00B2               	movwf	??_sprintf+1
  2786  0F8F  120A  118A  260A  120A  158A  	fcall	stringdir
  2787  0F94  00B3               	movwf	??_sprintf+2
  2788  0F95  0833               	movf	??_sprintf+2,w
  2789  0F96  0238               	subwf	sprintf@val+1,w
  2790  0F97  1D03               	skipz
  2791  0F98  2F9B               	goto	u1075
  2792  0F99  0832               	movf	??_sprintf+1,w
  2793  0F9A  0237               	subwf	sprintf@val,w
  2794  0F9B                     u1075:	
  2795  0F9B  1C03               	btfss	3,0
  2796  0F9C  2FA5               	goto	l1585
  2797                           
  2798                           ;doprnt.c: 1307: break;
  2799  0F9D  3001               	movlw	1
  2800  0F9E  00B1               	movwf	??_sprintf
  2801  0F9F  0831               	movf	??_sprintf,w
  2802  0FA0  07BA               	addwf	sprintf@c,f
  2803  0FA1  3005               	movlw	5
  2804  0FA2  063A               	xorwf	sprintf@c,w
  2805  0FA3  1D03               	btfss	3,2
  2806  0FA4  2F84               	goto	l1579
  2807  0FA5                     l1585:	
  2808                           
  2809                           ;doprnt.c: 1422: {
  2810                           ;doprnt.c: 1438: if(flag & 0x03)
  2811  0FA5  0835               	movf	sprintf@flag,w
  2812  0FA6  3903               	andlw	3
  2813  0FA7  1903               	btfsc	3,2
  2814  0FA8  2FB4               	goto	l1591
  2815                           
  2816                           ;doprnt.c: 1439: ((*sp++ = ('-')));
  2817  0FA9  302D               	movlw	45
  2818  0FAA  00B1               	movwf	??_sprintf
  2819  0FAB  0839               	movf	sprintf@sp,w
  2820  0FAC  0084               	movwf	4
  2821  0FAD  0831               	movf	??_sprintf,w
  2822  0FAE  1383               	bcf	3,7	;select IRP bank0
  2823  0FAF  0080               	movwf	0
  2824  0FB0  3001               	movlw	1
  2825  0FB1  00B1               	movwf	??_sprintf
  2826  0FB2  0831               	movf	??_sprintf,w
  2827  0FB3  07B9               	addwf	sprintf@sp,f
  2828  0FB4                     l1591:	
  2829                           
  2830                           ;doprnt.c: 1469: }
  2831                           ;doprnt.c: 1472: prec = c;
  2832  0FB4  083A               	movf	sprintf@c,w
  2833  0FB5  00B1               	movwf	??_sprintf
  2834  0FB6  0831               	movf	??_sprintf,w
  2835  0FB7  00B6               	movwf	sprintf@prec
  2836  0FB8                     l1599:	
  2837                           ;doprnt.c: 1474: while(prec--) {
  2838                           
  2839  0FB8  30FF               	movlw	255
  2840  0FB9  00B1               	movwf	??_sprintf
  2841  0FBA  0831               	movf	??_sprintf,w
  2842  0FBB  07B6               	addwf	sprintf@prec,f
  2843  0FBC  0A36               	incf	sprintf@prec,w
  2844  0FBD  1903               	btfsc	3,2
  2845  0FBE  2F31               	goto	l1601
  2846                           
  2847                           ;doprnt.c: 1478: {
  2848                           ;doprnt.c: 1489: c = (val / dpowers[prec]) % 10 + '0';
  2849  0FBF  300A               	movlw	10
  2850  0FC0  00A8               	movwf	___lwmod@divisor
  2851  0FC1  3000               	movlw	0
  2852  0FC2  00A9               	movwf	___lwmod@divisor+1
  2853  0FC3  0836               	movf	sprintf@prec,w
  2854  0FC4  00B1               	movwf	??_sprintf
  2855  0FC5  0731               	addwf	??_sprintf,w
  2856  0FC6  3E01               	addlw	low ((_dpowers-__stringbase)| (0+32768))
  2857  0FC7  0084               	movwf	4
  2858  0FC8  120A  118A  260A  120A  158A  	fcall	stringdir
  2859  0FCD  00A0               	movwf	___lwdiv@divisor
  2860  0FCE  120A  118A  260A  120A  158A  	fcall	stringdir
  2861  0FD3  00A1               	movwf	___lwdiv@divisor+1
  2862  0FD4  0838               	movf	sprintf@val+1,w
  2863  0FD5  00A3               	movwf	___lwdiv@dividend+1
  2864  0FD6  0837               	movf	sprintf@val,w
  2865  0FD7  00A2               	movwf	___lwdiv@dividend
  2866  0FD8  120A  158A  260F  120A  158A  	fcall	___lwdiv
  2867  0FDD  1283               	bcf	3,5	;RP0=0, select bank0
  2868  0FDE  1303               	bcf	3,6	;RP1=0, select bank0
  2869  0FDF  0821               	movf	?___lwdiv+1,w
  2870  0FE0  00AB               	movwf	___lwmod@dividend+1
  2871  0FE1  0820               	movf	?___lwdiv,w
  2872  0FE2  00AA               	movwf	___lwmod@dividend
  2873  0FE3  120A  158A  25A4  120A  158A  	fcall	___lwmod
  2874  0FE8  1283               	bcf	3,5	;RP0=0, select bank0
  2875  0FE9  1303               	bcf	3,6	;RP1=0, select bank0
  2876  0FEA  0828               	movf	?___lwmod,w
  2877  0FEB  3E30               	addlw	48
  2878  0FEC  00B2               	movwf	??_sprintf+1
  2879  0FED  0832               	movf	??_sprintf+1,w
  2880  0FEE  00BA               	movwf	sprintf@c
  2881                           
  2882                           ;doprnt.c: 1523: }
  2883                           ;doprnt.c: 1524: ((*sp++ = (c)));
  2884  0FEF  083A               	movf	sprintf@c,w
  2885  0FF0  00B1               	movwf	??_sprintf
  2886  0FF1  0839               	movf	sprintf@sp,w
  2887  0FF2  0084               	movwf	4
  2888  0FF3  0831               	movf	??_sprintf,w
  2889  0FF4  1383               	bcf	3,7	;select IRP bank0
  2890  0FF5  0080               	movwf	0
  2891  0FF6  3001               	movlw	1
  2892  0FF7  00B1               	movwf	??_sprintf
  2893  0FF8  0831               	movf	??_sprintf,w
  2894  0FF9  07B9               	addwf	sprintf@sp,f
  2895  0FFA  2FB8               	goto	l1599
  2896  0FFB                     l1603:	
  2897                           ;doprnt.c: 1525: }
  2898                           ;doprnt.c: 1533: }
  2899                           ;doprnt.c: 1535: alldone:
  2900                           
  2901                           
  2902                           ;doprnt.c: 1538: *sp = 0;
  2903  0FFB  0839               	movf	sprintf@sp,w
  2904  0FFC  0084               	movwf	4
  2905  0FFD  1383               	bcf	3,7	;select IRP bank0
  2906  0FFE  0180               	clrf	0
  2907  0FFF  0008               	return
  2908  1000                     __end_of_sprintf:	
  2909                           ;doprnt.c: 1540: return 0;
  2910                           ;	Return value of _sprintf is never used
  2911                           
  2912                           
  2913                           	psect	text5
  2914  0DA4                     __ptext5:	
  2915 ;; *************** function ___lwmod *****************
  2916 ;; Defined at:
  2917 ;;		line 6 in file "C:\Program Files (x86)\Microchip\xc8\v1.41\sources\common\lwmod.c"
  2918 ;; Parameters:    Size  Location     Type
  2919 ;;  divisor         2    8[BANK0 ] unsigned int 
  2920 ;;  dividend        2   10[BANK0 ] unsigned int 
  2921 ;; Auto vars:     Size  Location     Type
  2922 ;;  counter         1   13[BANK0 ] unsigned char 
  2923 ;; Return value:  Size  Location     Type
  2924 ;;                  2    8[BANK0 ] unsigned int 
  2925 ;; Registers used:
  2926 ;;		wreg, status,2, status,0
  2927 ;; Tracked objects:
  2928 ;;		On entry : 0/0
  2929 ;;		On exit  : 0/0
  2930 ;;		Unchanged: 0/0
  2931 ;; Data sizes:     COMMON   BANK0   BANK1   BANK3   BANK2
  2932 ;;      Params:         0       4       0       0       0
  2933 ;;      Locals:         0       1       0       0       0
  2934 ;;      Temps:          0       1       0       0       0
  2935 ;;      Totals:         0       6       0       0       0
  2936 ;;Total ram usage:        6 bytes
  2937 ;; Hardware stack levels used:    1
  2938 ;; Hardware stack levels required when called:    3
  2939 ;; This function calls:
  2940 ;;		Nothing
  2941 ;; This function is called by:
  2942 ;;		_sprintf
  2943 ;; This function uses a non-reentrant model
  2944 ;;
  2945                           
  2946                           
  2947                           ;psect for function ___lwmod
  2948  0DA4                     ___lwmod:	
  2949                           
  2950                           ;incstack = 0
  2951                           ; Regs used in ___lwmod: [wreg+status,2+status,0]
  2952  0DA4  1283               	bcf	3,5	;RP0=0, select bank0
  2953  0DA5  1303               	bcf	3,6	;RP1=0, select bank0
  2954  0DA6  0828               	movf	___lwmod@divisor,w
  2955  0DA7  0429               	iorwf	___lwmod@divisor+1,w
  2956  0DA8  1903               	btfsc	3,2
  2957  0DA9  2DD3               	goto	l1521
  2958  0DAA  01AD               	clrf	___lwmod@counter
  2959  0DAB  0AAD               	incf	___lwmod@counter,f
  2960  0DAC                     l1511:	
  2961  0DAC  1BA9               	btfsc	___lwmod@divisor+1,7
  2962  0DAD  2DBA               	goto	l1513
  2963  0DAE  3001               	movlw	1
  2964  0DAF                     u945:	
  2965  0DAF  1003               	clrc
  2966  0DB0  0DA8               	rlf	___lwmod@divisor,f
  2967  0DB1  0DA9               	rlf	___lwmod@divisor+1,f
  2968  0DB2  3EFF               	addlw	-1
  2969  0DB3  1D03               	skipz
  2970  0DB4  2DAF               	goto	u945
  2971  0DB5  3001               	movlw	1
  2972  0DB6  00AC               	movwf	??___lwmod
  2973  0DB7  082C               	movf	??___lwmod,w
  2974  0DB8  07AD               	addwf	___lwmod@counter,f
  2975  0DB9  2DAC               	goto	l1511
  2976  0DBA                     l1513:	
  2977  0DBA  0829               	movf	___lwmod@divisor+1,w
  2978  0DBB  022B               	subwf	___lwmod@dividend+1,w
  2979  0DBC  1D03               	skipz
  2980  0DBD  2DC0               	goto	u965
  2981  0DBE  0828               	movf	___lwmod@divisor,w
  2982  0DBF  022A               	subwf	___lwmod@dividend,w
  2983  0DC0                     u965:	
  2984  0DC0  1C03               	skipc
  2985  0DC1  2DC8               	goto	l1517
  2986  0DC2  0828               	movf	___lwmod@divisor,w
  2987  0DC3  02AA               	subwf	___lwmod@dividend,f
  2988  0DC4  0829               	movf	___lwmod@divisor+1,w
  2989  0DC5  1C03               	skipc
  2990  0DC6  03AB               	decf	___lwmod@dividend+1,f
  2991  0DC7  02AB               	subwf	___lwmod@dividend+1,f
  2992  0DC8                     l1517:	
  2993  0DC8  3001               	movlw	1
  2994  0DC9                     u975:	
  2995  0DC9  1003               	clrc
  2996  0DCA  0CA9               	rrf	___lwmod@divisor+1,f
  2997  0DCB  0CA8               	rrf	___lwmod@divisor,f
  2998  0DCC  3EFF               	addlw	-1
  2999  0DCD  1D03               	skipz
  3000  0DCE  2DC9               	goto	u975
  3001  0DCF  3001               	movlw	1
  3002  0DD0  02AD               	subwf	___lwmod@counter,f
  3003  0DD1  1D03               	btfss	3,2
  3004  0DD2  2DBA               	goto	l1513
  3005  0DD3                     l1521:	
  3006  0DD3  082B               	movf	___lwmod@dividend+1,w
  3007  0DD4  00A9               	movwf	?___lwmod+1
  3008  0DD5  082A               	movf	___lwmod@dividend,w
  3009  0DD6  00A8               	movwf	?___lwmod
  3010  0DD7  0008               	return
  3011  0DD8                     __end_of___lwmod:	
  3012                           
  3013                           	psect	text6
  3014  0E0F                     __ptext6:	
  3015 ;; *************** function ___lwdiv *****************
  3016 ;; Defined at:
  3017 ;;		line 6 in file "C:\Program Files (x86)\Microchip\xc8\v1.41\sources\common\lwdiv.c"
  3018 ;; Parameters:    Size  Location     Type
  3019 ;;  divisor         2    0[BANK0 ] unsigned int 
  3020 ;;  dividend        2    2[BANK0 ] unsigned int 
  3021 ;; Auto vars:     Size  Location     Type
  3022 ;;  quotient        2    5[BANK0 ] unsigned int 
  3023 ;;  counter         1    7[BANK0 ] unsigned char 
  3024 ;; Return value:  Size  Location     Type
  3025 ;;                  2    0[BANK0 ] unsigned int 
  3026 ;; Registers used:
  3027 ;;		wreg, status,2, status,0
  3028 ;; Tracked objects:
  3029 ;;		On entry : 0/0
  3030 ;;		On exit  : 0/0
  3031 ;;		Unchanged: 0/0
  3032 ;; Data sizes:     COMMON   BANK0   BANK1   BANK3   BANK2
  3033 ;;      Params:         0       4       0       0       0
  3034 ;;      Locals:         0       3       0       0       0
  3035 ;;      Temps:          0       1       0       0       0
  3036 ;;      Totals:         0       8       0       0       0
  3037 ;;Total ram usage:        8 bytes
  3038 ;; Hardware stack levels used:    1
  3039 ;; Hardware stack levels required when called:    3
  3040 ;; This function calls:
  3041 ;;		Nothing
  3042 ;; This function is called by:
  3043 ;;		_sprintf
  3044 ;; This function uses a non-reentrant model
  3045 ;;
  3046                           
  3047                           
  3048                           ;psect for function ___lwdiv
  3049  0E0F                     ___lwdiv:	
  3050                           
  3051                           ;incstack = 0
  3052                           ; Regs used in ___lwdiv: [wreg+status,2+status,0]
  3053  0E0F  1283               	bcf	3,5	;RP0=0, select bank0
  3054  0E10  1303               	bcf	3,6	;RP1=0, select bank0
  3055  0E11  01A5               	clrf	___lwdiv@quotient
  3056  0E12  01A6               	clrf	___lwdiv@quotient+1
  3057  0E13  0820               	movf	___lwdiv@divisor,w
  3058  0E14  0421               	iorwf	___lwdiv@divisor+1,w
  3059  0E15  1903               	btfsc	3,2
  3060  0E16  2E48               	goto	l1499
  3061  0E17  01A7               	clrf	___lwdiv@counter
  3062  0E18  0AA7               	incf	___lwdiv@counter,f
  3063  0E19                     l1487:	
  3064  0E19  1BA1               	btfsc	___lwdiv@divisor+1,7
  3065  0E1A  2E27               	goto	l1489
  3066  0E1B  3001               	movlw	1
  3067  0E1C                     u875:	
  3068  0E1C  1003               	clrc
  3069  0E1D  0DA0               	rlf	___lwdiv@divisor,f
  3070  0E1E  0DA1               	rlf	___lwdiv@divisor+1,f
  3071  0E1F  3EFF               	addlw	-1
  3072  0E20  1D03               	skipz
  3073  0E21  2E1C               	goto	u875
  3074  0E22  3001               	movlw	1
  3075  0E23  00A4               	movwf	??___lwdiv
  3076  0E24  0824               	movf	??___lwdiv,w
  3077  0E25  07A7               	addwf	___lwdiv@counter,f
  3078  0E26  2E19               	goto	l1487
  3079  0E27                     l1489:	
  3080  0E27  3001               	movlw	1
  3081  0E28                     u895:	
  3082  0E28  1003               	clrc
  3083  0E29  0DA5               	rlf	___lwdiv@quotient,f
  3084  0E2A  0DA6               	rlf	___lwdiv@quotient+1,f
  3085  0E2B  3EFF               	addlw	-1
  3086  0E2C  1D03               	skipz
  3087  0E2D  2E28               	goto	u895
  3088  0E2E  0821               	movf	___lwdiv@divisor+1,w
  3089  0E2F  0223               	subwf	___lwdiv@dividend+1,w
  3090  0E30  1D03               	skipz
  3091  0E31  2E34               	goto	u905
  3092  0E32  0820               	movf	___lwdiv@divisor,w
  3093  0E33  0222               	subwf	___lwdiv@dividend,w
  3094  0E34                     u905:	
  3095  0E34  1C03               	skipc
  3096  0E35  2E3D               	goto	l1495
  3097  0E36  0820               	movf	___lwdiv@divisor,w
  3098  0E37  02A2               	subwf	___lwdiv@dividend,f
  3099  0E38  0821               	movf	___lwdiv@divisor+1,w
  3100  0E39  1C03               	skipc
  3101  0E3A  03A3               	decf	___lwdiv@dividend+1,f
  3102  0E3B  02A3               	subwf	___lwdiv@dividend+1,f
  3103  0E3C  1425               	bsf	___lwdiv@quotient,0
  3104  0E3D                     l1495:	
  3105  0E3D  3001               	movlw	1
  3106  0E3E                     u915:	
  3107  0E3E  1003               	clrc
  3108  0E3F  0CA1               	rrf	___lwdiv@divisor+1,f
  3109  0E40  0CA0               	rrf	___lwdiv@divisor,f
  3110  0E41  3EFF               	addlw	-1
  3111  0E42  1D03               	skipz
  3112  0E43  2E3E               	goto	u915
  3113  0E44  3001               	movlw	1
  3114  0E45  02A7               	subwf	___lwdiv@counter,f
  3115  0E46  1D03               	btfss	3,2
  3116  0E47  2E27               	goto	l1489
  3117  0E48                     l1499:	
  3118  0E48  0826               	movf	___lwdiv@quotient+1,w
  3119  0E49  00A1               	movwf	?___lwdiv+1
  3120  0E4A  0825               	movf	___lwdiv@quotient,w
  3121  0E4B  00A0               	movwf	?___lwdiv
  3122  0E4C  0008               	return
  3123  0E4D                     __end_of___lwdiv:	
  3124                           
  3125                           	psect	text7
  3126  0D4E                     __ptext7:	
  3127 ;; *************** function _LCD_WM *****************
  3128 ;; Defined at:
  3129 ;;		line 88 in file "picMaestro.c"
  3130 ;; Parameters:    Size  Location     Type
  3131 ;;  c               2    7[BANK0 ] PTR unsigned char 
  3132 ;;		 -> STR_27(7), STR_26(14), check_mensajes@str_dinero2_445(8), STR_23(5), 
  3133 ;;		 -> STR_22(17), STR_20(9), check_mensajes@str_int(8), STR_18(10), 
  3134 ;;		 -> STR_17(17), STR_16(14), STR_15(17), STR_14(17), 
  3135 ;;		 -> STR_13(8), STR_12(10), STR_11(8), STR_10(17), 
  3136 ;;		 -> check_mensajes@str_dinero2(8), STR_7(5), STR_6(8), check_mensajes@str_temperatura(6), 
  3137 ;;		 -> STR_4(5), STR_3(13), STR_2(15), STR_1(16), 
  3138 ;; Auto vars:     Size  Location     Type
  3139 ;;  i               1   10[BANK0 ] unsigned char 
  3140 ;; Return value:  Size  Location     Type
  3141 ;;                  1    wreg      void 
  3142 ;; Registers used:
  3143 ;;		wreg, fsr0l, fsr0h, status,2, status,0, btemp+1, pclath, cstack
  3144 ;; Tracked objects:
  3145 ;;		On entry : 0/0
  3146 ;;		On exit  : 0/0
  3147 ;;		Unchanged: 0/0
  3148 ;; Data sizes:     COMMON   BANK0   BANK1   BANK3   BANK2
  3149 ;;      Params:         0       2       0       0       0
  3150 ;;      Locals:         0       1       0       0       0
  3151 ;;      Temps:          0       1       0       0       0
  3152 ;;      Totals:         0       4       0       0       0
  3153 ;;Total ram usage:        4 bytes
  3154 ;; Hardware stack levels used:    1
  3155 ;; Hardware stack levels required when called:    5
  3156 ;; This function calls:
  3157 ;;		_LCD_W
  3158 ;; This function is called by:
  3159 ;;		_check_mensajes
  3160 ;;		_main
  3161 ;; This function uses a non-reentrant model
  3162 ;;
  3163                           
  3164                           
  3165                           ;psect for function _LCD_WM
  3166  0D4E                     _LCD_WM:	
  3167                           
  3168                           ;picMaestro.c: 89: char i=0;
  3169                           
  3170                           ;incstack = 0
  3171 ;; using string table level
  3172                           ; Regs used in _LCD_WM: [wreg-fsr0h+status,2+status,0+btemp+1+pclath+cstack]
  3173  0D4E  1283               	bcf	3,5	;RP0=0, select bank0
  3174  0D4F  1303               	bcf	3,6	;RP1=0, select bank0
  3175  0D50  01AA               	clrf	LCD_WM@i
  3176  0D51                     l1547:	
  3177                           ;picMaestro.c: 90: while (c[i]!=0){
  3178                           
  3179  0D51  082A               	movf	LCD_WM@i,w
  3180  0D52  0727               	addwf	LCD_WM@c,w
  3181  0D53  0084               	movwf	4
  3182  0D54  0828               	movf	LCD_WM@c+1,w
  3183  0D55  1803               	skipnc
  3184  0D56  0A28               	incf	LCD_WM@c+1,w
  3185  0D57  00FF               	movwf	127
  3186  0D58  120A  118A  2600  120A  158A  	fcall	stringtab
  3187  0D5D  3A00               	xorlw	0
  3188  0D5E  1903               	btfsc	3,2
  3189  0D5F  0008               	return
  3190                           
  3191                           ;picMaestro.c: 91: LCD_W(c[i]);
  3192  0D60  082A               	movf	LCD_WM@i,w
  3193  0D61  0727               	addwf	LCD_WM@c,w
  3194  0D62  0084               	movwf	4
  3195  0D63  0828               	movf	LCD_WM@c+1,w
  3196  0D64  1803               	skipnc
  3197  0D65  0A28               	incf	LCD_WM@c+1,w
  3198  0D66  00FF               	movwf	127
  3199  0D67  120A  118A  2600  120A  158A  	fcall	stringtab
  3200  0D6C  120A  158A  2578  120A  158A  	fcall	_LCD_W
  3201                           
  3202                           ;picMaestro.c: 92: i++;
  3203  0D71  3001               	movlw	1
  3204  0D72  1283               	bcf	3,5	;RP0=0, select bank0
  3205  0D73  1303               	bcf	3,6	;RP1=0, select bank0
  3206  0D74  00A9               	movwf	??_LCD_WM
  3207  0D75  0829               	movf	??_LCD_WM,w
  3208  0D76  07AA               	addwf	LCD_WM@i,f
  3209  0D77  2D51               	goto	l1547
  3210  0D78                     __end_of_LCD_WM:	
  3211                           ;picMaestro.c: 93: }
  3212                           ;picMaestro.c: 94: return;
  3213                           
  3214                           
  3215                           	psect	text8
  3216  0D78                     __ptext8:	
  3217 ;; *************** function _LCD_W *****************
  3218 ;; Defined at:
  3219 ;;		line 74 in file "picMaestro.c"
  3220 ;; Parameters:    Size  Location     Type
  3221 ;;  c               1    wreg     unsigned char 
  3222 ;; Auto vars:     Size  Location     Type
  3223 ;;  c               1    6[BANK0 ] unsigned char 
  3224 ;;  h               1    5[BANK0 ] unsigned char 
  3225 ;;  l               1    4[BANK0 ] unsigned char 
  3226 ;; Return value:  Size  Location     Type
  3227 ;;                  1    wreg      void 
  3228 ;; Registers used:
  3229 ;;		wreg, status,2, status,0, pclath, cstack
  3230 ;; Tracked objects:
  3231 ;;		On entry : 0/0
  3232 ;;		On exit  : 0/0
  3233 ;;		Unchanged: 0/0
  3234 ;; Data sizes:     COMMON   BANK0   BANK1   BANK3   BANK2
  3235 ;;      Params:         0       0       0       0       0
  3236 ;;      Locals:         0       3       0       0       0
  3237 ;;      Temps:          0       2       0       0       0
  3238 ;;      Totals:         0       5       0       0       0
  3239 ;;Total ram usage:        5 bytes
  3240 ;; Hardware stack levels used:    1
  3241 ;; Hardware stack levels required when called:    4
  3242 ;; This function calls:
  3243 ;;		_LCD_t
  3244 ;; This function is called by:
  3245 ;;		_LCD_WM
  3246 ;;		_check_mensajes
  3247 ;;		_check_transmisiones
  3248 ;; This function uses a non-reentrant model
  3249 ;;
  3250                           
  3251                           
  3252                           ;psect for function _LCD_W
  3253  0D78                     _LCD_W:	
  3254                           
  3255                           ;incstack = 0
  3256                           ; Regs used in _LCD_W: [wreg+status,2+status,0+pclath+cstack]
  3257                           ;LCD_W@c stored from wreg
  3258  0D78  1283               	bcf	3,5	;RP0=0, select bank0
  3259  0D79  1303               	bcf	3,6	;RP1=0, select bank0
  3260  0D7A  00A6               	movwf	LCD_W@c
  3261                           
  3262                           ;picMaestro.c: 77: char l=c & 0x0f;
  3263  0D7B  0826               	movf	LCD_W@c,w
  3264  0D7C  390F               	andlw	15
  3265  0D7D  00A2               	movwf	??_LCD_W
  3266  0D7E  0822               	movf	??_LCD_W,w
  3267  0D7F  00A4               	movwf	LCD_W@l
  3268                           
  3269                           ;picMaestro.c: 78: char h=c>>4;
  3270  0D80  0826               	movf	LCD_W@c,w
  3271  0D81  00A2               	movwf	??_LCD_W
  3272  0D82  3004               	movlw	4
  3273  0D83                     u855:	
  3274  0D83  1003               	clrc
  3275  0D84  0CA2               	rrf	??_LCD_W,f
  3276  0D85  3EFF               	addlw	-1
  3277  0D86  1D03               	skipz
  3278  0D87  2D83               	goto	u855
  3279  0D88  0822               	movf	??_LCD_W,w
  3280  0D89  00A3               	movwf	??_LCD_W+1
  3281  0D8A  0823               	movf	??_LCD_W+1,w
  3282  0D8B  00A5               	movwf	LCD_W@h
  3283                           
  3284                           ;picMaestro.c: 80: LCD_t(h+16);
  3285  0D8C  0825               	movf	LCD_W@h,w
  3286  0D8D  3E10               	addlw	16
  3287  0D8E  120A  158A  252C  120A  158A  	fcall	_LCD_t
  3288                           
  3289                           ;picMaestro.c: 81: LCD_t(l+16);
  3290  0D93  1283               	bcf	3,5	;RP0=0, select bank0
  3291  0D94  1303               	bcf	3,6	;RP1=0, select bank0
  3292  0D95  0824               	movf	LCD_W@l,w
  3293  0D96  3E10               	addlw	16
  3294  0D97  120A  158A  252C  120A  158A  	fcall	_LCD_t
  3295                           
  3296                           ;picMaestro.c: 83: _delay((unsigned long)((50)*(8000000/4000000.0)));
  3297  0D9C  3020               	movlw	32
  3298  0D9D  1283               	bcf	3,5	;RP0=0, select bank0
  3299  0D9E  1303               	bcf	3,6	;RP1=0, select bank0
  3300  0D9F  00A2               	movwf	??_LCD_W
  3301  0DA0                     u1797:	
  3302  0DA0  0BA2               	decfsz	??_LCD_W,f
  3303  0DA1  2DA0               	goto	u1797
  3304  0DA2  0000               	nop
  3305  0DA3  0008               	return
  3306  0DA4                     __end_of_LCD_W:	
  3307                           ;picMaestro.c: 84: return;
  3308                           
  3309                           
  3310                           	psect	text9
  3311  0D0B                     __ptext9:	
  3312 ;; *************** function _IRcontrol *****************
  3313 ;; Defined at:
  3314 ;;		line 133 in file "picMaestro.c"
  3315 ;; Parameters:    Size  Location     Type
  3316 ;;		None
  3317 ;; Auto vars:     Size  Location     Type
  3318 ;;		None
  3319 ;; Return value:  Size  Location     Type
  3320 ;;                  1    wreg      void 
  3321 ;; Registers used:
  3322 ;;		wreg, status,2
  3323 ;; Tracked objects:
  3324 ;;		On entry : 0/0
  3325 ;;		On exit  : 0/0
  3326 ;;		Unchanged: 0/0
  3327 ;; Data sizes:     COMMON   BANK0   BANK1   BANK3   BANK2
  3328 ;;      Params:         0       0       0       0       0
  3329 ;;      Locals:         0       0       0       0       0
  3330 ;;      Temps:          0       3       0       0       0
  3331 ;;      Totals:         0       3       0       0       0
  3332 ;;Total ram usage:        3 bytes
  3333 ;; Hardware stack levels used:    1
  3334 ;; Hardware stack levels required when called:    3
  3335 ;; This function calls:
  3336 ;;		Nothing
  3337 ;; This function is called by:
  3338 ;;		_check_transmisiones
  3339 ;;		_main
  3340 ;; This function uses a non-reentrant model
  3341 ;;
  3342                           
  3343                           
  3344                           ;psect for function _IRcontrol
  3345  0D0B                     _IRcontrol:	
  3346                           
  3347                           ;picMaestro.c: 134: if(PORTCbits.RC0==0){
  3348                           
  3349                           ;incstack = 0
  3350                           ; Regs used in _IRcontrol: [wreg+status,2]
  3351  0D0B  1283               	bcf	3,5	;RP0=0, select bank0
  3352  0D0C  1303               	bcf	3,6	;RP1=0, select bank0
  3353  0D0D  1807               	btfsc	7,0	;volatile
  3354  0D0E  0008               	return
  3355                           
  3356                           ;picMaestro.c: 135: T1CONbits.TMR1ON=1;
  3357  0D0F  1410               	bsf	16,0	;volatile
  3358                           
  3359                           ;picMaestro.c: 136: _delay((unsigned long)((200)*(8000000/4000.0)));
  3360  0D10  3003               	movlw	3
  3361  0D11  1283               	bcf	3,5	;RP0=0, select bank0
  3362  0D12  1303               	bcf	3,6	;RP1=0, select bank0
  3363  0D13  00A2               	movwf	??_IRcontrol+2
  3364  0D14  3008               	movlw	8
  3365  0D15  00A1               	movwf	??_IRcontrol+1
  3366  0D16  3076               	movlw	118
  3367  0D17  00A0               	movwf	??_IRcontrol
  3368  0D18                     u1807:	
  3369  0D18  0BA0               	decfsz	??_IRcontrol,f
  3370  0D19  2D18               	goto	u1807
  3371  0D1A  0BA1               	decfsz	??_IRcontrol+1,f
  3372  0D1B  2D18               	goto	u1807
  3373  0D1C  0BA2               	decfsz	??_IRcontrol+2,f
  3374  0D1D  2D18               	goto	u1807
  3375  0D1E  0000               	nop
  3376                           
  3377                           ;picMaestro.c: 137: T1CONbits.TMR1ON=0;
  3378  0D1F  1283               	bcf	3,5	;RP0=0, select bank0
  3379  0D20  1303               	bcf	3,6	;RP1=0, select bank0
  3380  0D21  1010               	bcf	16,0	;volatile
  3381                           
  3382                           ;picMaestro.c: 138: noControl=TMR1L;
  3383  0D22  080E               	movf	14,w	;volatile
  3384  0D23  00A0               	movwf	??_IRcontrol
  3385  0D24  01A1               	clrf	??_IRcontrol+1
  3386  0D25  0820               	movf	??_IRcontrol,w
  3387  0D26  00F8               	movwf	_noControl
  3388  0D27  0821               	movf	??_IRcontrol+1,w
  3389  0D28  00F9               	movwf	_noControl+1
  3390                           
  3391                           ;picMaestro.c: 140: TMR1L=0;
  3392  0D29  018E               	clrf	14	;volatile
  3393                           
  3394                           ;picMaestro.c: 141: T1CONbits.TMR1ON=1;
  3395  0D2A  1410               	bsf	16,0	;volatile
  3396  0D2B  0008               	return
  3397  0D2C                     __end_of_IRcontrol:	
  3398                           
  3399                           	psect	text10
  3400  0538                     __ptext10:	
  3401 ;; *************** function _LCD_init *****************
  3402 ;; Defined at:
  3403 ;;		line 98 in file "picMaestro.c"
  3404 ;; Parameters:    Size  Location     Type
  3405 ;;		None
  3406 ;; Auto vars:     Size  Location     Type
  3407 ;;		None
  3408 ;; Return value:  Size  Location     Type
  3409 ;;                  1    wreg      void 
  3410 ;; Registers used:
  3411 ;;		wreg, status,2, status,0, btemp+1, pclath, cstack
  3412 ;; Tracked objects:
  3413 ;;		On entry : 0/0
  3414 ;;		On exit  : 0/0
  3415 ;;		Unchanged: 0/0
  3416 ;; Data sizes:     COMMON   BANK0   BANK1   BANK3   BANK2
  3417 ;;      Params:         0       0       0       0       0
  3418 ;;      Locals:         0       0       0       0       0
  3419 ;;      Temps:          0       2       0       0       0
  3420 ;;      Totals:         0       2       0       0       0
  3421 ;;Total ram usage:        2 bytes
  3422 ;; Hardware stack levels used:    1
  3423 ;; Hardware stack levels required when called:    5
  3424 ;; This function calls:
  3425 ;;		_LCD_t
  3426 ;;		_LCD_t8
  3427 ;; This function is called by:
  3428 ;;		_main
  3429 ;; This function uses a non-reentrant model
  3430 ;;
  3431                           
  3432                           
  3433                           ;psect for function _LCD_init
  3434  0538                     _LCD_init:	
  3435                           
  3436                           ;picMaestro.c: 100: _delay((unsigned long)((10)*(8000000/4000.0)));
  3437                           
  3438                           ;incstack = 0
  3439                           ; Regs used in _LCD_init: [wreg+status,2+status,0+btemp+1+pclath+cstack]
  3440  0538  301A               	movlw	26
  3441  0539  1283               	bcf	3,5	;RP0=0, select bank0
  3442  053A  1303               	bcf	3,6	;RP1=0, select bank0
  3443  053B  00AC               	movwf	??_LCD_init+1
  3444  053C  30F7               	movlw	247
  3445  053D  00AB               	movwf	??_LCD_init
  3446  053E                     u1817:	
  3447  053E  0BAB               	decfsz	??_LCD_init,f
  3448  053F  2D3E               	goto	u1817
  3449  0540  0BAC               	decfsz	??_LCD_init+1,f
  3450  0541  2D3E               	goto	u1817
  3451  0542  2D43               	nop2
  3452                           
  3453                           ;picMaestro.c: 101: LCD_t(0b00011);
  3454  0543  3003               	movlw	3
  3455  0544  120A  158A  252C  120A  118A  	fcall	_LCD_t
  3456                           
  3457                           ;picMaestro.c: 102: _delay((unsigned long)((2)*(8000000/4000.0)));
  3458  0549  3006               	movlw	6
  3459  054A  1283               	bcf	3,5	;RP0=0, select bank0
  3460  054B  1303               	bcf	3,6	;RP1=0, select bank0
  3461  054C  00AC               	movwf	??_LCD_init+1
  3462  054D  302F               	movlw	47
  3463  054E  00AB               	movwf	??_LCD_init
  3464  054F                     u1827:	
  3465  054F  0BAB               	decfsz	??_LCD_init,f
  3466  0550  2D4F               	goto	u1827
  3467  0551  0BAC               	decfsz	??_LCD_init+1,f
  3468  0552  2D4F               	goto	u1827
  3469  0553  2D54               	nop2
  3470                           
  3471                           ;picMaestro.c: 103: LCD_t(0b00011);
  3472  0554  3003               	movlw	3
  3473  0555  120A  158A  252C  120A  118A  	fcall	_LCD_t
  3474                           
  3475                           ;picMaestro.c: 104: LCD_t(0b00011);
  3476  055A  3003               	movlw	3
  3477  055B  120A  158A  252C  120A  118A  	fcall	_LCD_t
  3478                           
  3479                           ;picMaestro.c: 105: _delay((unsigned long)((2)*(8000000/4000.0)));
  3480  0560  3006               	movlw	6
  3481  0561  1283               	bcf	3,5	;RP0=0, select bank0
  3482  0562  1303               	bcf	3,6	;RP1=0, select bank0
  3483  0563  00AC               	movwf	??_LCD_init+1
  3484  0564  302F               	movlw	47
  3485  0565  00AB               	movwf	??_LCD_init
  3486  0566                     u1837:	
  3487  0566  0BAB               	decfsz	??_LCD_init,f
  3488  0567  2D66               	goto	u1837
  3489  0568  0BAC               	decfsz	??_LCD_init+1,f
  3490  0569  2D66               	goto	u1837
  3491  056A  2D6B               	nop2
  3492                           
  3493                           ;picMaestro.c: 107: LCD_t(0b00010);
  3494  056B  3002               	movlw	2
  3495  056C  120A  158A  252C  120A  118A  	fcall	_LCD_t
  3496                           
  3497                           ;picMaestro.c: 108: _delay((unsigned long)((2)*(8000000/4000.0)));
  3498  0571  3006               	movlw	6
  3499  0572  1283               	bcf	3,5	;RP0=0, select bank0
  3500  0573  1303               	bcf	3,6	;RP1=0, select bank0
  3501  0574  00AC               	movwf	??_LCD_init+1
  3502  0575  302F               	movlw	47
  3503  0576  00AB               	movwf	??_LCD_init
  3504  0577                     u1847:	
  3505  0577  0BAB               	decfsz	??_LCD_init,f
  3506  0578  2D77               	goto	u1847
  3507  0579  0BAC               	decfsz	??_LCD_init+1,f
  3508  057A  2D77               	goto	u1847
  3509  057B  2D7C               	nop2
  3510                           
  3511                           ;picMaestro.c: 111: LCD_t8(0b0000101000);
  3512  057C  3028               	movlw	40
  3513  057D  1283               	bcf	3,5	;RP0=0, select bank0
  3514  057E  1303               	bcf	3,6	;RP1=0, select bank0
  3515  057F  00A2               	movwf	LCD_t8@i
  3516  0580  3000               	movlw	0
  3517  0581  00A3               	movwf	LCD_t8@i+1
  3518  0582  120A  158A  264D  120A  118A  	fcall	_LCD_t8
  3519                           
  3520                           ;picMaestro.c: 112: _delay((unsigned long)((2)*(8000000/4000.0)));
  3521  0587  3006               	movlw	6
  3522  0588  1283               	bcf	3,5	;RP0=0, select bank0
  3523  0589  1303               	bcf	3,6	;RP1=0, select bank0
  3524  058A  00AC               	movwf	??_LCD_init+1
  3525  058B  302F               	movlw	47
  3526  058C  00AB               	movwf	??_LCD_init
  3527  058D                     u1857:	
  3528  058D  0BAB               	decfsz	??_LCD_init,f
  3529  058E  2D8D               	goto	u1857
  3530  058F  0BAC               	decfsz	??_LCD_init+1,f
  3531  0590  2D8D               	goto	u1857
  3532  0591  2D92               	nop2
  3533                           
  3534                           ;picMaestro.c: 115: LCD_t8(0b0000001000);
  3535  0592  3008               	movlw	8
  3536  0593  1283               	bcf	3,5	;RP0=0, select bank0
  3537  0594  1303               	bcf	3,6	;RP1=0, select bank0
  3538  0595  00A2               	movwf	LCD_t8@i
  3539  0596  3000               	movlw	0
  3540  0597  00A3               	movwf	LCD_t8@i+1
  3541  0598  120A  158A  264D  120A  118A  	fcall	_LCD_t8
  3542                           
  3543                           ;picMaestro.c: 116: _delay((unsigned long)((2)*(8000000/4000.0)));
  3544  059D  3006               	movlw	6
  3545  059E  1283               	bcf	3,5	;RP0=0, select bank0
  3546  059F  1303               	bcf	3,6	;RP1=0, select bank0
  3547  05A0  00AC               	movwf	??_LCD_init+1
  3548  05A1  302F               	movlw	47
  3549  05A2  00AB               	movwf	??_LCD_init
  3550  05A3                     u1867:	
  3551  05A3  0BAB               	decfsz	??_LCD_init,f
  3552  05A4  2DA3               	goto	u1867
  3553  05A5  0BAC               	decfsz	??_LCD_init+1,f
  3554  05A6  2DA3               	goto	u1867
  3555  05A7  2DA8               	nop2
  3556                           
  3557                           ;picMaestro.c: 119: LCD_t8(0b0000000001);
  3558  05A8  3001               	movlw	1
  3559  05A9  1283               	bcf	3,5	;RP0=0, select bank0
  3560  05AA  1303               	bcf	3,6	;RP1=0, select bank0
  3561  05AB  00A2               	movwf	LCD_t8@i
  3562  05AC  3000               	movlw	0
  3563  05AD  00A3               	movwf	LCD_t8@i+1
  3564  05AE  120A  158A  264D  120A  118A  	fcall	_LCD_t8
  3565                           
  3566                           ;picMaestro.c: 120: _delay((unsigned long)((2)*(8000000/4000.0)));
  3567  05B3  3006               	movlw	6
  3568  05B4  1283               	bcf	3,5	;RP0=0, select bank0
  3569  05B5  1303               	bcf	3,6	;RP1=0, select bank0
  3570  05B6  00AC               	movwf	??_LCD_init+1
  3571  05B7  302F               	movlw	47
  3572  05B8  00AB               	movwf	??_LCD_init
  3573  05B9                     u1877:	
  3574  05B9  0BAB               	decfsz	??_LCD_init,f
  3575  05BA  2DB9               	goto	u1877
  3576  05BB  0BAC               	decfsz	??_LCD_init+1,f
  3577  05BC  2DB9               	goto	u1877
  3578  05BD  2DBE               	nop2
  3579                           
  3580                           ;picMaestro.c: 123: LCD_t8(0b0000000110);
  3581  05BE  3006               	movlw	6
  3582  05BF  1283               	bcf	3,5	;RP0=0, select bank0
  3583  05C0  1303               	bcf	3,6	;RP1=0, select bank0
  3584  05C1  00A2               	movwf	LCD_t8@i
  3585  05C2  3000               	movlw	0
  3586  05C3  00A3               	movwf	LCD_t8@i+1
  3587  05C4  120A  158A  264D  120A  118A  	fcall	_LCD_t8
  3588                           
  3589                           ;picMaestro.c: 124: _delay((unsigned long)((2)*(8000000/4000.0)));
  3590  05C9  3006               	movlw	6
  3591  05CA  1283               	bcf	3,5	;RP0=0, select bank0
  3592  05CB  1303               	bcf	3,6	;RP1=0, select bank0
  3593  05CC  00AC               	movwf	??_LCD_init+1
  3594  05CD  302F               	movlw	47
  3595  05CE  00AB               	movwf	??_LCD_init
  3596  05CF                     u1887:	
  3597  05CF  0BAB               	decfsz	??_LCD_init,f
  3598  05D0  2DCF               	goto	u1887
  3599  05D1  0BAC               	decfsz	??_LCD_init+1,f
  3600  05D2  2DCF               	goto	u1887
  3601  05D3  2DD4               	nop2
  3602                           
  3603                           ;picMaestro.c: 127: LCD_t8(0b0000001100);
  3604  05D4  300C               	movlw	12
  3605  05D5  1283               	bcf	3,5	;RP0=0, select bank0
  3606  05D6  1303               	bcf	3,6	;RP1=0, select bank0
  3607  05D7  00A2               	movwf	LCD_t8@i
  3608  05D8  3000               	movlw	0
  3609  05D9  00A3               	movwf	LCD_t8@i+1
  3610  05DA  120A  158A  264D  120A  118A  	fcall	_LCD_t8
  3611                           
  3612                           ;picMaestro.c: 128: _delay((unsigned long)((2)*(8000000/4000.0)));
  3613  05DF  3006               	movlw	6
  3614  05E0  1283               	bcf	3,5	;RP0=0, select bank0
  3615  05E1  1303               	bcf	3,6	;RP1=0, select bank0
  3616  05E2  00AC               	movwf	??_LCD_init+1
  3617  05E3  302F               	movlw	47
  3618  05E4  00AB               	movwf	??_LCD_init
  3619  05E5                     u1897:	
  3620  05E5  0BAB               	decfsz	??_LCD_init,f
  3621  05E6  2DE5               	goto	u1897
  3622  05E7  0BAC               	decfsz	??_LCD_init+1,f
  3623  05E8  2DE5               	goto	u1897
  3624  05E9  2DEA               	nop2
  3625  05EA  0008               	return
  3626  05EB                     __end_of_LCD_init:	
  3627                           ;picMaestro.c: 129: return;
  3628                           
  3629                           
  3630                           	psect	text11
  3631  0E4D                     __ptext11:	
  3632 ;; *************** function _LCD_t8 *****************
  3633 ;; Defined at:
  3634 ;;		line 58 in file "picMaestro.c"
  3635 ;; Parameters:    Size  Location     Type
  3636 ;;  i               2    2[BANK0 ] int 
  3637 ;; Auto vars:     Size  Location     Type
  3638 ;;  com             1   10[BANK0 ] unsigned char 
  3639 ;;  rs              1    9[BANK0 ] unsigned char 
  3640 ;;  h               1    8[BANK0 ] unsigned char 
  3641 ;;  l               1    7[BANK0 ] unsigned char 
  3642 ;; Return value:  Size  Location     Type
  3643 ;;                  1    wreg      void 
  3644 ;; Registers used:
  3645 ;;		wreg, status,2, status,0, btemp+1, pclath, cstack
  3646 ;; Tracked objects:
  3647 ;;		On entry : 0/0
  3648 ;;		On exit  : 0/0
  3649 ;;		Unchanged: 0/0
  3650 ;; Data sizes:     COMMON   BANK0   BANK1   BANK3   BANK2
  3651 ;;      Params:         0       2       0       0       0
  3652 ;;      Locals:         0       4       0       0       0
  3653 ;;      Temps:          0       3       0       0       0
  3654 ;;      Totals:         0       9       0       0       0
  3655 ;;Total ram usage:        9 bytes
  3656 ;; Hardware stack levels used:    1
  3657 ;; Hardware stack levels required when called:    4
  3658 ;; This function calls:
  3659 ;;		_LCD_t
  3660 ;; This function is called by:
  3661 ;;		_LCD_init
  3662 ;;		_check_mensajes
  3663 ;;		_check_transmisiones
  3664 ;;		_main
  3665 ;; This function uses a non-reentrant model
  3666 ;;
  3667                           
  3668                           
  3669                           ;psect for function _LCD_t8
  3670  0E4D                     _LCD_t8:	
  3671                           
  3672                           ;picMaestro.c: 59: char rs = (char)(i>>9);
  3673                           
  3674                           ;incstack = 0
  3675                           ; Regs used in _LCD_t8: [wreg+status,2+status,0+btemp+1+pclath+cstack]
  3676  0E4D  1283               	bcf	3,5	;RP0=0, select bank0
  3677  0E4E  1303               	bcf	3,6	;RP1=0, select bank0
  3678  0E4F  0823               	movf	LCD_t8@i+1,w
  3679  0E50  00A5               	movwf	??_LCD_t8+1
  3680  0E51  0822               	movf	LCD_t8@i,w
  3681  0E52  00A4               	movwf	??_LCD_t8
  3682  0E53  3009               	movlw	9
  3683  0E54  00FF               	movwf	127
  3684  0E55                     u995:	
  3685  0E55  0D25               	rlf	??_LCD_t8+1,w
  3686  0E56  0CA5               	rrf	??_LCD_t8+1,f
  3687  0E57  0CA4               	rrf	??_LCD_t8,f
  3688  0E58  0BFF               	decfsz	127,f
  3689  0E59  2E55               	goto	u995
  3690  0E5A  0824               	movf	??_LCD_t8,w
  3691  0E5B  00A6               	movwf	??_LCD_t8+2
  3692  0E5C  0826               	movf	??_LCD_t8+2,w
  3693  0E5D  00A9               	movwf	LCD_t8@rs
  3694                           
  3695                           ;picMaestro.c: 60: char com = i & 0xff;
  3696  0E5E  0822               	movf	LCD_t8@i,w
  3697  0E5F  00A4               	movwf	??_LCD_t8
  3698  0E60  0824               	movf	??_LCD_t8,w
  3699  0E61  00AA               	movwf	LCD_t8@com
  3700                           
  3701                           ;picMaestro.c: 63: char l=com & 0x0f;
  3702  0E62  082A               	movf	LCD_t8@com,w
  3703  0E63  390F               	andlw	15
  3704  0E64  00A4               	movwf	??_LCD_t8
  3705  0E65  0824               	movf	??_LCD_t8,w
  3706  0E66  00A7               	movwf	LCD_t8@l
  3707                           
  3708                           ;picMaestro.c: 64: char h=com>>4;
  3709  0E67  082A               	movf	LCD_t8@com,w
  3710  0E68  00A4               	movwf	??_LCD_t8
  3711  0E69  3004               	movlw	4
  3712  0E6A                     u1005:	
  3713  0E6A  1003               	clrc
  3714  0E6B  0CA4               	rrf	??_LCD_t8,f
  3715  0E6C  3EFF               	addlw	-1
  3716  0E6D  1D03               	skipz
  3717  0E6E  2E6A               	goto	u1005
  3718  0E6F  0824               	movf	??_LCD_t8,w
  3719  0E70  00A5               	movwf	??_LCD_t8+1
  3720  0E71  0825               	movf	??_LCD_t8+1,w
  3721  0E72  00A8               	movwf	LCD_t8@h
  3722                           
  3723                           ;picMaestro.c: 66: LCD_t(h+rs*16);
  3724  0E73  0829               	movf	LCD_t8@rs,w
  3725  0E74  00A4               	movwf	??_LCD_t8
  3726  0E75  3004               	movlw	4
  3727  0E76                     u1015:	
  3728  0E76  1003               	clrc
  3729  0E77  0DA4               	rlf	??_LCD_t8,f
  3730  0E78  3EFF               	addlw	-1
  3731  0E79  1D03               	skipz
  3732  0E7A  2E76               	goto	u1015
  3733  0E7B  0828               	movf	LCD_t8@h,w
  3734  0E7C  0724               	addwf	??_LCD_t8,w
  3735  0E7D  120A  158A  252C  120A  158A  	fcall	_LCD_t
  3736                           
  3737                           ;picMaestro.c: 67: LCD_t(l+rs*16);
  3738  0E82  1283               	bcf	3,5	;RP0=0, select bank0
  3739  0E83  1303               	bcf	3,6	;RP1=0, select bank0
  3740  0E84  0829               	movf	LCD_t8@rs,w
  3741  0E85  00A4               	movwf	??_LCD_t8
  3742  0E86  3004               	movlw	4
  3743  0E87                     u1025:	
  3744  0E87  1003               	clrc
  3745  0E88  0DA4               	rlf	??_LCD_t8,f
  3746  0E89  3EFF               	addlw	-1
  3747  0E8A  1D03               	skipz
  3748  0E8B  2E87               	goto	u1025
  3749  0E8C  0827               	movf	LCD_t8@l,w
  3750  0E8D  0724               	addwf	??_LCD_t8,w
  3751  0E8E  120A  158A  252C  120A  158A  	fcall	_LCD_t
  3752                           
  3753                           ;picMaestro.c: 69: _delay((unsigned long)((50)*(8000000/4000000.0)));
  3754  0E93  3020               	movlw	32
  3755  0E94  1283               	bcf	3,5	;RP0=0, select bank0
  3756  0E95  1303               	bcf	3,6	;RP1=0, select bank0
  3757  0E96  00A4               	movwf	??_LCD_t8
  3758  0E97                     u1907:	
  3759  0E97  0BA4               	decfsz	??_LCD_t8,f
  3760  0E98  2E97               	goto	u1907
  3761  0E99  0000               	nop
  3762  0E9A  0008               	return
  3763  0E9B                     __end_of_LCD_t8:	
  3764                           ;picMaestro.c: 70: return;
  3765                           
  3766                           
  3767                           	psect	text12
  3768  0D2C                     __ptext12:	
  3769 ;; *************** function _LCD_t *****************
  3770 ;; Defined at:
  3771 ;;		line 46 in file "picMaestro.c"
  3772 ;; Parameters:    Size  Location     Type
  3773 ;;  c               1    wreg     unsigned char 
  3774 ;; Auto vars:     Size  Location     Type
  3775 ;;  c               1    1[BANK0 ] unsigned char 
  3776 ;; Return value:  Size  Location     Type
  3777 ;;                  1    wreg      void 
  3778 ;; Registers used:
  3779 ;;		wreg, status,2
  3780 ;; Tracked objects:
  3781 ;;		On entry : 0/0
  3782 ;;		On exit  : 0/0
  3783 ;;		Unchanged: 0/0
  3784 ;; Data sizes:     COMMON   BANK0   BANK1   BANK3   BANK2
  3785 ;;      Params:         0       0       0       0       0
  3786 ;;      Locals:         0       1       0       0       0
  3787 ;;      Temps:          0       1       0       0       0
  3788 ;;      Totals:         0       2       0       0       0
  3789 ;;Total ram usage:        2 bytes
  3790 ;; Hardware stack levels used:    1
  3791 ;; Hardware stack levels required when called:    3
  3792 ;; This function calls:
  3793 ;;		Nothing
  3794 ;; This function is called by:
  3795 ;;		_LCD_t8
  3796 ;;		_LCD_W
  3797 ;;		_LCD_init
  3798 ;; This function uses a non-reentrant model
  3799 ;;
  3800                           
  3801                           
  3802                           ;psect for function _LCD_t
  3803  0D2C                     _LCD_t:	
  3804                           
  3805                           ;incstack = 0
  3806                           ; Regs used in _LCD_t: [wreg+status,2]
  3807                           ;LCD_t@c stored from wreg
  3808  0D2C  1283               	bcf	3,5	;RP0=0, select bank0
  3809  0D2D  1303               	bcf	3,6	;RP1=0, select bank0
  3810  0D2E  00A1               	movwf	LCD_t@c
  3811                           
  3812                           ;picMaestro.c: 48: PORTA=c|32;
  3813  0D2F  0821               	movf	LCD_t@c,w
  3814  0D30  3820               	iorlw	32
  3815  0D31  0085               	movwf	5	;volatile
  3816                           
  3817                           ;picMaestro.c: 49: _delay((unsigned long)((5)*(8000000/4000000.0)));
  3818  0D32  3002               	movlw	2
  3819  0D33  1283               	bcf	3,5	;RP0=0, select bank0
  3820  0D34  1303               	bcf	3,6	;RP1=0, select bank0
  3821  0D35  00A0               	movwf	??_LCD_t
  3822  0D36                     u1917:	
  3823  0D36  0BA0               	decfsz	??_LCD_t,f
  3824  0D37  2D36               	goto	u1917
  3825  0D38  0000               	nop
  3826                           
  3827                           ;picMaestro.c: 50: PORTAbits.RA5=0;
  3828  0D39  1283               	bcf	3,5	;RP0=0, select bank0
  3829  0D3A  1303               	bcf	3,6	;RP1=0, select bank0
  3830  0D3B  1285               	bcf	5,5	;volatile
  3831                           
  3832                           ;picMaestro.c: 51: _delay((unsigned long)((5)*(8000000/4000000.0)));
  3833  0D3C  3002               	movlw	2
  3834  0D3D  1283               	bcf	3,5	;RP0=0, select bank0
  3835  0D3E  1303               	bcf	3,6	;RP1=0, select bank0
  3836  0D3F  00A0               	movwf	??_LCD_t
  3837  0D40                     u1927:	
  3838  0D40  0BA0               	decfsz	??_LCD_t,f
  3839  0D41  2D40               	goto	u1927
  3840  0D42  0000               	nop
  3841                           
  3842                           ;picMaestro.c: 52: PORTAbits.RA5=1;
  3843  0D43  1283               	bcf	3,5	;RP0=0, select bank0
  3844  0D44  1303               	bcf	3,6	;RP1=0, select bank0
  3845  0D45  1685               	bsf	5,5	;volatile
  3846                           
  3847                           ;picMaestro.c: 53: _delay((unsigned long)((5)*(8000000/4000000.0)));
  3848  0D46  3002               	movlw	2
  3849  0D47  1283               	bcf	3,5	;RP0=0, select bank0
  3850  0D48  1303               	bcf	3,6	;RP1=0, select bank0
  3851  0D49  00A0               	movwf	??_LCD_t
  3852  0D4A                     u1937:	
  3853  0D4A  0BA0               	decfsz	??_LCD_t,f
  3854  0D4B  2D4A               	goto	u1937
  3855  0D4C  0000               	nop
  3856  0D4D  0008               	return
  3857  0D4E                     __end_of_LCD_t:	
  3858                           ;picMaestro.c: 54: return;
  3859                           
  3860                           
  3861                           	psect	text13
  3862  06FB                     __ptext13:	
  3863 ;; *************** function _ISR *****************
  3864 ;; Defined at:
  3865 ;;		line 423 in file "picMaestro.c"
  3866 ;; Parameters:    Size  Location     Type
  3867 ;;		None
  3868 ;; Auto vars:     Size  Location     Type
  3869 ;;		None
  3870 ;; Return value:  Size  Location     Type
  3871 ;;                  1    wreg      void 
  3872 ;; Registers used:
  3873 ;;		wreg, status,2, status,0, btemp+1, pclath, cstack
  3874 ;; Tracked objects:
  3875 ;;		On entry : 0/0
  3876 ;;		On exit  : 0/0
  3877 ;;		Unchanged: 0/0
  3878 ;; Data sizes:     COMMON   BANK0   BANK1   BANK3   BANK2
  3879 ;;      Params:         0       0       0       0       0
  3880 ;;      Locals:         0       0       0       0       0
  3881 ;;      Temps:          7       0       0       0       0
  3882 ;;      Totals:         7       0       0       0       0
  3883 ;;Total ram usage:        7 bytes
  3884 ;; Hardware stack levels used:    1
  3885 ;; Hardware stack levels required when called:    2
  3886 ;; This function calls:
  3887 ;;		_enviarDATA_USART
  3888 ;; This function is called by:
  3889 ;;		Interrupt level 1
  3890 ;; This function uses a non-reentrant model
  3891 ;;
  3892                           
  3893                           
  3894                           ;psect for function _ISR
  3895  06FB                     _ISR:	
  3896                           
  3897                           ;picMaestro.c: 424: if (INTCONbits.RBIF==1){
  3898  06FB  1C0B               	btfss	11,0	;volatile
  3899  06FC  2F9D               	goto	i1l2087
  3900                           
  3901                           ;picMaestro.c: 426: if (PORTBbits.RB0==0){dinero+=25;dineroT+=25;n_mensaje=1;}
  3902  06FD  1806               	btfsc	6,0	;volatile
  3903  06FE  2F0F               	goto	i1l2037
  3904  06FF  3019               	movlw	25
  3905  0700  07FA               	addwf	_dinero,f
  3906  0701  1803               	skipnc
  3907  0702  0AFB               	incf	_dinero+1,f
  3908  0703  3000               	movlw	0
  3909  0704  07FB               	addwf	_dinero+1,f
  3910  0705  3019               	movlw	25
  3911  0706  1683               	bsf	3,5	;RP0=1, select bank1
  3912  0707  1303               	bcf	3,6	;RP1=0, select bank1
  3913  0708  07A0               	addwf	_dineroT^(0+128),f
  3914  0709  1803               	skipnc
  3915  070A  0AA1               	incf	(_dineroT+1)^(0+128),f
  3916  070B  3000               	movlw	0
  3917  070C  07A1               	addwf	(_dineroT+1)^(0+128),f
  3918  070D  01FD               	clrf	_n_mensaje
  3919  070E  0AFD               	incf	_n_mensaje,f
  3920  070F                     i1l2037:	
  3921                           
  3922                           ;picMaestro.c: 427: if (PORTBbits.RB1==0){dinero+=50;dineroT+=50;n_mensaje=1;}
  3923  070F  1283               	bcf	3,5	;RP0=0, select bank0
  3924  0710  1886               	btfsc	6,1	;volatile
  3925  0711  2F22               	goto	i1l2043
  3926  0712  3032               	movlw	50
  3927  0713  07FA               	addwf	_dinero,f
  3928  0714  1803               	skipnc
  3929  0715  0AFB               	incf	_dinero+1,f
  3930  0716  3000               	movlw	0
  3931  0717  07FB               	addwf	_dinero+1,f
  3932  0718  3032               	movlw	50
  3933  0719  1683               	bsf	3,5	;RP0=1, select bank1
  3934  071A  1303               	bcf	3,6	;RP1=0, select bank1
  3935  071B  07A0               	addwf	_dineroT^(0+128),f
  3936  071C  1803               	skipnc
  3937  071D  0AA1               	incf	(_dineroT+1)^(0+128),f
  3938  071E  3000               	movlw	0
  3939  071F  07A1               	addwf	(_dineroT+1)^(0+128),f
  3940  0720  01FD               	clrf	_n_mensaje
  3941  0721  0AFD               	incf	_n_mensaje,f
  3942  0722                     i1l2043:	
  3943                           
  3944                           ;picMaestro.c: 428: if (PORTBbits.RB2==0){dinero+=100;dineroT+=100;n_mensaje=1;}
  3945  0722  1283               	bcf	3,5	;RP0=0, select bank0
  3946  0723  1906               	btfsc	6,2	;volatile
  3947  0724  2F35               	goto	i1l2049
  3948  0725  3064               	movlw	100
  3949  0726  07FA               	addwf	_dinero,f
  3950  0727  1803               	skipnc
  3951  0728  0AFB               	incf	_dinero+1,f
  3952  0729  3000               	movlw	0
  3953  072A  07FB               	addwf	_dinero+1,f
  3954  072B  3064               	movlw	100
  3955  072C  1683               	bsf	3,5	;RP0=1, select bank1
  3956  072D  1303               	bcf	3,6	;RP1=0, select bank1
  3957  072E  07A0               	addwf	_dineroT^(0+128),f
  3958  072F  1803               	skipnc
  3959  0730  0AA1               	incf	(_dineroT+1)^(0+128),f
  3960  0731  3000               	movlw	0
  3961  0732  07A1               	addwf	(_dineroT+1)^(0+128),f
  3962  0733  01FD               	clrf	_n_mensaje
  3963  0734  0AFD               	incf	_n_mensaje,f
  3964  0735                     i1l2049:	
  3965                           
  3966                           ;picMaestro.c: 431: if (PORTBbits.RB3==0&dinero>=350){
  3967  0735  1283               	bcf	3,5	;RP0=0, select bank0
  3968  0736  1986               	btfsc	6,3	;volatile
  3969  0737  2F68               	goto	i1l2067
  3970  0738  087B               	movf	_dinero+1,w
  3971  0739  3A80               	xorlw	128
  3972  073A  00FF               	movwf	127
  3973  073B  3081               	movlw	129
  3974  073C  027F               	subwf	127,w
  3975  073D  1D03               	skipz
  3976  073E  2F41               	goto	u161_25
  3977  073F  305E               	movlw	94
  3978  0740  027A               	subwf	_dinero,w
  3979  0741                     u161_25:	
  3980  0741  1C03               	skipc
  3981  0742  2F68               	goto	i1l2067
  3982                           
  3983                           ;picMaestro.c: 432: tampicos+=1;
  3984  0743  3001               	movlw	1
  3985  0744  00F1               	movwf	??_ISR
  3986  0745  0871               	movf	??_ISR,w
  3987  0746  1683               	bsf	3,5	;RP0=1, select bank1
  3988  0747  1303               	bcf	3,6	;RP1=0, select bank1
  3989  0748  07A7               	addwf	_tampicos^(0+128),f
  3990                           
  3991                           ;picMaestro.c: 433: dinero-=350;
  3992  0749  30A2               	movlw	162
  3993  074A  07FA               	addwf	_dinero,f
  3994  074B  1803               	skipnc
  3995  074C  0AFB               	incf	_dinero+1,f
  3996  074D  30FE               	movlw	254
  3997  074E  07FB               	addwf	_dinero+1,f
  3998                           
  3999                           ;picMaestro.c: 434: PORTE=0b11111110;
  4000  074F  30FE               	movlw	254
  4001  0750  1283               	bcf	3,5	;RP0=0, select bank0
  4002  0751  1303               	bcf	3,6	;RP1=0, select bank0
  4003  0752  0089               	movwf	9	;volatile
  4004                           
  4005                           ;picMaestro.c: 435: n_mensaje=3;
  4006  0753  3003               	movlw	3
  4007  0754  00F1               	movwf	??_ISR
  4008  0755  0871               	movf	??_ISR,w
  4009  0756  00FD               	movwf	_n_mensaje
  4010                           
  4011                           ;picMaestro.c: 436: SSPBUF=1;
  4012  0757  3001               	movlw	1
  4013  0758  0093               	movwf	19	;volatile
  4014                           
  4015                           ;picMaestro.c: 437: PORTD=1;
  4016  0759  3001               	movlw	1
  4017  075A  0088               	movwf	8	;volatile
  4018                           
  4019                           ;picMaestro.c: 438: _delay((unsigned long)((500)*(8000000/4000.0)));
  4020  075B  3006               	movlw	6
  4021  075C  00F3               	movwf	??_ISR+2
  4022  075D  3013               	movlw	19
  4023  075E  00F2               	movwf	??_ISR+1
  4024  075F  30AD               	movlw	173
  4025  0760  00F1               	movwf	??_ISR
  4026  0761                     u194_27:	
  4027  0761  0BF1               	decfsz	??_ISR,f
  4028  0762  2F61               	goto	u194_27
  4029  0763  0BF2               	decfsz	??_ISR+1,f
  4030  0764  2F61               	goto	u194_27
  4031  0765  0BF3               	decfsz	??_ISR+2,f
  4032  0766  2F61               	goto	u194_27
  4033  0767  2F68               	nop2
  4034  0768                     i1l2067:	
  4035                           
  4036                           ;picMaestro.c: 439: }
  4037                           ;picMaestro.c: 441: if (PORTBbits.RB4==0&dinero>=200){
  4038  0768  1283               	bcf	3,5	;RP0=0, select bank0
  4039  0769  1303               	bcf	3,6	;RP1=0, select bank0
  4040  076A  1A06               	btfsc	6,4	;volatile
  4041  076B  2F9C               	goto	i1l2085
  4042  076C  087B               	movf	_dinero+1,w
  4043  076D  3A80               	xorlw	128
  4044  076E  00FF               	movwf	127
  4045  076F  3080               	movlw	128
  4046  0770  027F               	subwf	127,w
  4047  0771  1D03               	skipz
  4048  0772  2F75               	goto	u163_25
  4049  0773  30C8               	movlw	200
  4050  0774  027A               	subwf	_dinero,w
  4051  0775                     u163_25:	
  4052  0775  1C03               	skipc
  4053  0776  2F9C               	goto	i1l2085
  4054                           
  4055                           ;picMaestro.c: 442: tortrix+=1;
  4056  0777  3001               	movlw	1
  4057  0778  00F1               	movwf	??_ISR
  4058  0779  0871               	movf	??_ISR,w
  4059  077A  1683               	bsf	3,5	;RP0=1, select bank1
  4060  077B  1303               	bcf	3,6	;RP1=0, select bank1
  4061  077C  07A8               	addwf	_tortrix^(0+128),f
  4062                           
  4063                           ;picMaestro.c: 443: dinero-=200;
  4064  077D  3038               	movlw	56
  4065  077E  07FA               	addwf	_dinero,f
  4066  077F  1803               	skipnc
  4067  0780  0AFB               	incf	_dinero+1,f
  4068  0781  30FF               	movlw	255
  4069  0782  07FB               	addwf	_dinero+1,f
  4070                           
  4071                           ;picMaestro.c: 444: PORTE=0b11111110;
  4072  0783  30FE               	movlw	254
  4073  0784  1283               	bcf	3,5	;RP0=0, select bank0
  4074  0785  1303               	bcf	3,6	;RP1=0, select bank0
  4075  0786  0089               	movwf	9	;volatile
  4076                           
  4077                           ;picMaestro.c: 445: n_mensaje=4;
  4078  0787  3004               	movlw	4
  4079  0788  00F1               	movwf	??_ISR
  4080  0789  0871               	movf	??_ISR,w
  4081  078A  00FD               	movwf	_n_mensaje
  4082                           
  4083                           ;picMaestro.c: 446: SSPBUF=2;
  4084  078B  3002               	movlw	2
  4085  078C  0093               	movwf	19	;volatile
  4086                           
  4087                           ;picMaestro.c: 447: PORTD=2;
  4088  078D  3002               	movlw	2
  4089  078E  0088               	movwf	8	;volatile
  4090                           
  4091                           ;picMaestro.c: 448: _delay((unsigned long)((500)*(8000000/4000.0)));
  4092  078F  3006               	movlw	6
  4093  0790  00F3               	movwf	??_ISR+2
  4094  0791  3013               	movlw	19
  4095  0792  00F2               	movwf	??_ISR+1
  4096  0793  30AD               	movlw	173
  4097  0794  00F1               	movwf	??_ISR
  4098  0795                     u195_27:	
  4099  0795  0BF1               	decfsz	??_ISR,f
  4100  0796  2F95               	goto	u195_27
  4101  0797  0BF2               	decfsz	??_ISR+1,f
  4102  0798  2F95               	goto	u195_27
  4103  0799  0BF3               	decfsz	??_ISR+2,f
  4104  079A  2F95               	goto	u195_27
  4105  079B  2F9C               	nop2
  4106  079C                     i1l2085:	
  4107                           
  4108                           ;picMaestro.c: 449: }
  4109                           ;picMaestro.c: 450: INTCONbits.RBIF=0;
  4110  079C  100B               	bcf	11,0	;volatile
  4111  079D                     i1l2087:	
  4112                           
  4113                           ;picMaestro.c: 451: }
  4114                           ;picMaestro.c: 454: if(PIR1bits.RCIF == 1){
  4115  079D  1283               	bcf	3,5	;RP0=0, select bank0
  4116  079E  1303               	bcf	3,6	;RP1=0, select bank0
  4117  079F  1E8C               	btfss	12,5	;volatile
  4118  07A0  2FA6               	goto	i1l2093
  4119                           
  4120                           ;picMaestro.c: 455: accionUSART = RCREG;
  4121  07A1  081A               	movf	26,w	;volatile
  4122  07A2  00F1               	movwf	??_ISR
  4123  07A3  0871               	movf	??_ISR,w
  4124  07A4  00FC               	movwf	_accionUSART
  4125                           
  4126                           ;picMaestro.c: 457: PIR1bits.RCIF = 0;
  4127  07A5  128C               	bcf	12,5	;volatile
  4128  07A6                     i1l2093:	
  4129                           
  4130                           ;picMaestro.c: 458: }
  4131                           ;picMaestro.c: 461: if (PIR1bits.TMR2IF == 1){
  4132  07A6  1C8C               	btfss	12,1	;volatile
  4133  07A7  2FD9               	goto	i1l207
  4134                           
  4135                           ;picMaestro.c: 462: PIR1bits.TMR2IF =0;
  4136  07A8  108C               	bcf	12,1	;volatile
  4137                           
  4138                           ;picMaestro.c: 463: cont2++;
  4139  07A9  3001               	movlw	1
  4140  07AA  1683               	bsf	3,5	;RP0=1, select bank1
  4141  07AB  1303               	bcf	3,6	;RP1=0, select bank1
  4142  07AC  07A2               	addwf	_cont2^(0+128),f
  4143  07AD  1803               	skipnc
  4144  07AE  0AA3               	incf	(_cont2+1)^(0+128),f
  4145  07AF  3000               	movlw	0
  4146  07B0  07A3               	addwf	(_cont2+1)^(0+128),f
  4147                           
  4148                           ;picMaestro.c: 464: cont++;
  4149  07B1  3001               	movlw	1
  4150  07B2  07A4               	addwf	_cont^(0+128),f
  4151  07B3  1803               	skipnc
  4152  07B4  0AA5               	incf	(_cont+1)^(0+128),f
  4153  07B5  3000               	movlw	0
  4154  07B6  07A5               	addwf	(_cont+1)^(0+128),f
  4155                           
  4156                           ;picMaestro.c: 465: if (cont==500){
  4157  07B7  30F4               	movlw	244
  4158  07B8  0624               	xorwf	_cont^(0+128),w
  4159  07B9  1D03               	skipz
  4160  07BA  2FC0               	goto	i1l2103
  4161  07BB  0325               	decf	(_cont+1)^(0+128),w
  4162  07BC  1D03               	btfss	3,2
  4163  07BD  2FC0               	goto	i1l2103
  4164                           
  4165                           ;picMaestro.c: 466: n_mensaje=1;
  4166  07BE  01FD               	clrf	_n_mensaje
  4167  07BF  0AFD               	incf	_n_mensaje,f
  4168  07C0                     i1l2103:	
  4169                           
  4170                           ;picMaestro.c: 467: }
  4171                           ;picMaestro.c: 468: if (cont==1000){
  4172  07C0  30E8               	movlw	232
  4173  07C1  0624               	xorwf	_cont^(0+128),w
  4174  07C2  3003               	movlw	3
  4175  07C3  1903               	skipnz
  4176  07C4  0625               	xorwf	(_cont+1)^(0+128),w
  4177  07C5  1D03               	btfss	3,2
  4178  07C6  2FCD               	goto	i1l2109
  4179                           
  4180                           ;picMaestro.c: 469: n_mensaje=2;
  4181  07C7  3002               	movlw	2
  4182  07C8  00F1               	movwf	??_ISR
  4183  07C9  0871               	movf	??_ISR,w
  4184  07CA  00FD               	movwf	_n_mensaje
  4185                           
  4186                           ;picMaestro.c: 470: cont=0;
  4187  07CB  01A4               	clrf	_cont^(0+128)
  4188  07CC  01A5               	clrf	(_cont+1)^(0+128)
  4189  07CD                     i1l2109:	
  4190                           
  4191                           ;picMaestro.c: 471: }
  4192                           ;picMaestro.c: 472: if (cont2==50){
  4193  07CD  3032               	movlw	50
  4194  07CE  0622               	xorwf	_cont2^(0+128),w
  4195  07CF  0423               	iorwf	(_cont2+1)^(0+128),w
  4196  07D0  1D03               	btfss	3,2
  4197  07D1  2FD9               	goto	i1l207
  4198                           
  4199                           ;picMaestro.c: 473: cont2=0;
  4200  07D2  01A2               	clrf	_cont2^(0+128)
  4201  07D3  01A3               	clrf	(_cont2+1)^(0+128)
  4202                           
  4203                           ;picMaestro.c: 474: enviarDATA_USART();
  4204  07D4  120A  158A  25D8  120A  118A  	fcall	_enviarDATA_USART
  4205  07D9                     i1l207:	
  4206                           ;picMaestro.c: 475: }
  4207                           ;picMaestro.c: 476: }
  4208                           ;picMaestro.c: 477: return;
  4209                           
  4210  07D9  0877               	movf	??_ISR+6,w
  4211  07DA  1283               	bcf	3,5	;RP0=0, select bank0
  4212  07DB  1303               	bcf	3,6	;RP1=0, select bank0
  4213  07DC  00FF               	movwf	127
  4214  07DD  0876               	movf	??_ISR+5,w
  4215  07DE  008A               	movwf	10
  4216  07DF  0875               	movf	??_ISR+4,w
  4217  07E0  0084               	movwf	4
  4218  07E1  0E74               	swapf	(??_ISR+3)^(0+-128),w
  4219  07E2  0083               	movwf	3
  4220  07E3  0EFE               	swapf	126,f
  4221  07E4  0E7E               	swapf	126,w
  4222  07E5  0009               	retfie
  4223  07E6                     __end_of_ISR:	
  4224                           
  4225                           	psect	intentry
  4226  0004                     __pintentry:	
  4227                           ;incstack = 0
  4228                           ; Regs used in _ISR: [wreg+status,2+status,0+btemp+1+pclath+cstack]
  4229                           
  4230  0004                     interrupt_function:	
  4231  007E                     saved_w	set	btemp
  4232  0004  00FE               	movwf	btemp
  4233  0005  0E03               	swapf	3,w
  4234  0006  00F4               	movwf	??_ISR+3
  4235  0007  0804               	movf	4,w
  4236  0008  00F5               	movwf	??_ISR+4
  4237  0009  080A               	movf	10,w
  4238  000A  00F6               	movwf	??_ISR+5
  4239  000B  1283               	bcf	3,5	;RP0=0, select bank0
  4240  000C  1303               	bcf	3,6	;RP1=0, select bank0
  4241  000D  087F               	movf	btemp+1,w
  4242  000E  00F7               	movwf	??_ISR+6
  4243  000F  120A  118A  2EFB   	ljmp	_ISR
  4244                           
  4245                           	psect	text14
  4246  0DD8                     __ptext14:	
  4247 ;; *************** function _enviarDATA_USART *****************
  4248 ;; Defined at:
  4249 ;;		line 313 in file "picMaestro.c"
  4250 ;; Parameters:    Size  Location     Type
  4251 ;;		None
  4252 ;; Auto vars:     Size  Location     Type
  4253 ;;		None
  4254 ;; Return value:  Size  Location     Type
  4255 ;;                  1    wreg      void 
  4256 ;; Registers used:
  4257 ;;		wreg, status,2, status,0, pclath, cstack
  4258 ;; Tracked objects:
  4259 ;;		On entry : 0/0
  4260 ;;		On exit  : 0/0
  4261 ;;		Unchanged: 0/0
  4262 ;; Data sizes:     COMMON   BANK0   BANK1   BANK3   BANK2
  4263 ;;      Params:         0       0       0       0       0
  4264 ;;      Locals:         0       0       0       0       0
  4265 ;;      Temps:          0       0       0       0       0
  4266 ;;      Totals:         0       0       0       0       0
  4267 ;;Total ram usage:        0 bytes
  4268 ;; Hardware stack levels used:    1
  4269 ;; Hardware stack levels required when called:    1
  4270 ;; This function calls:
  4271 ;;		_enviarUSART
  4272 ;; This function is called by:
  4273 ;;		_ISR
  4274 ;; This function uses a non-reentrant model
  4275 ;;
  4276                           
  4277                           
  4278                           ;psect for function _enviarDATA_USART
  4279  0DD8                     _enviarDATA_USART:	
  4280                           
  4281                           ;picMaestro.c: 314: enviarUSART(255);
  4282                           
  4283                           ;incstack = 0
  4284                           ; Regs used in _enviarDATA_USART: [wreg+status,2+status,0+pclath+cstack]
  4285  0DD8  30FF               	movlw	255
  4286  0DD9  120A  118A  27E6  120A  158A  	fcall	_enviarUSART
  4287                           
  4288                           ;picMaestro.c: 315: enviarUSART(temperatura);
  4289  0DDE  1683               	bsf	3,5	;RP0=1, select bank1
  4290  0DDF  1303               	bcf	3,6	;RP1=0, select bank1
  4291  0DE0  0826               	movf	_temperatura^(0+128),w
  4292  0DE1  120A  118A  27E6  120A  158A  	fcall	_enviarUSART
  4293                           
  4294                           ;picMaestro.c: 316: enviarUSART(tortrix);
  4295  0DE6  1683               	bsf	3,5	;RP0=1, select bank1
  4296  0DE7  1303               	bcf	3,6	;RP1=0, select bank1
  4297  0DE8  0828               	movf	_tortrix^(0+128),w
  4298  0DE9  120A  118A  27E6  120A  158A  	fcall	_enviarUSART
  4299                           
  4300                           ;picMaestro.c: 317: enviarUSART(dinero>>8&255);
  4301  0DEE  087B               	movf	_dinero+1,w
  4302  0DEF  120A  118A  27E6  120A  158A  	fcall	_enviarUSART
  4303                           
  4304                           ;picMaestro.c: 318: enviarUSART(dinero&255);
  4305  0DF4  087A               	movf	_dinero,w
  4306  0DF5  120A  118A  27E6  120A  158A  	fcall	_enviarUSART
  4307                           
  4308                           ;picMaestro.c: 319: enviarUSART(dineroT>>8&255);
  4309  0DFA  1683               	bsf	3,5	;RP0=1, select bank1
  4310  0DFB  1303               	bcf	3,6	;RP1=0, select bank1
  4311  0DFC  0821               	movf	(_dineroT+1)^(0+128),w
  4312  0DFD  120A  118A  27E6  120A  158A  	fcall	_enviarUSART
  4313                           
  4314                           ;picMaestro.c: 320: enviarUSART(dineroT&255);
  4315  0E02  1683               	bsf	3,5	;RP0=1, select bank1
  4316  0E03  1303               	bcf	3,6	;RP1=0, select bank1
  4317  0E04  0820               	movf	_dineroT^(0+128),w
  4318  0E05  120A  118A  27E6  120A  158A  	fcall	_enviarUSART
  4319                           
  4320                           ;picMaestro.c: 321: enviarUSART('a');
  4321  0E0A  3061               	movlw	97
  4322  0E0B  120A  118A  27E6   	fcall	_enviarUSART
  4323  0E0E  0008               	return
  4324  0E0F                     __end_of_enviarDATA_USART:	
  4325                           ;picMaestro.c: 322: return;
  4326                           
  4327                           
  4328                           	psect	text15
  4329  07E6                     __ptext15:	
  4330 ;; *************** function _enviarUSART *****************
  4331 ;; Defined at:
  4332 ;;		line 307 in file "picMaestro.c"
  4333 ;; Parameters:    Size  Location     Type
  4334 ;;  dato            1    wreg     unsigned char 
  4335 ;; Auto vars:     Size  Location     Type
  4336 ;;  dato            1    0[COMMON] unsigned char 
  4337 ;; Return value:  Size  Location     Type
  4338 ;;                  1    wreg      void 
  4339 ;; Registers used:
  4340 ;;		wreg
  4341 ;; Tracked objects:
  4342 ;;		On entry : 0/0
  4343 ;;		On exit  : 0/0
  4344 ;;		Unchanged: 0/0
  4345 ;; Data sizes:     COMMON   BANK0   BANK1   BANK3   BANK2
  4346 ;;      Params:         0       0       0       0       0
  4347 ;;      Locals:         1       0       0       0       0
  4348 ;;      Temps:          0       0       0       0       0
  4349 ;;      Totals:         1       0       0       0       0
  4350 ;;Total ram usage:        1 bytes
  4351 ;; Hardware stack levels used:    1
  4352 ;; This function calls:
  4353 ;;		Nothing
  4354 ;; This function is called by:
  4355 ;;		_enviarDATA_USART
  4356 ;; This function uses a non-reentrant model
  4357 ;;
  4358                           
  4359                           
  4360                           ;psect for function _enviarUSART
  4361  07E6                     _enviarUSART:	
  4362                           
  4363                           ;incstack = 0
  4364                           ; Regs used in _enviarUSART: [wreg]
  4365                           ;enviarUSART@dato stored from wreg
  4366  07E6  00F0               	movwf	enviarUSART@dato
  4367  07E7                     i1l145:	
  4368                           ;picMaestro.c: 308: while (TXSTAbits.TRMT==0);
  4369                           
  4370  07E7  1683               	bsf	3,5	;RP0=1, select bank1
  4371  07E8  1303               	bcf	3,6	;RP1=0, select bank1
  4372  07E9  1C98               	btfss	24,1	;volatile
  4373  07EA  2FE7               	goto	i1l145
  4374                           
  4375                           ;picMaestro.c: 309: TXREG = dato;
  4376  07EB  0870               	movf	enviarUSART@dato,w
  4377  07EC  1283               	bcf	3,5	;RP0=0, select bank0
  4378  07ED  1303               	bcf	3,6	;RP1=0, select bank0
  4379  07EE  0099               	movwf	25	;volatile
  4380  07EF  0008               	return
  4381  07F0                     __end_of_enviarUSART:	
  4382                           ;picMaestro.c: 310: return;
  4383                           
  4384  007E                     btemp	set	126	;btemp
  4385  007E                     wtemp0	set	126


Data Sizes:
    Strings     225
    Constant    10
    Data        0
    BSS         16
    Persistent  0
    Stack       0

Auto Spaces:
    Space          Size  Autos    Used
    COMMON           14      8      14
    BANK0            80     80      80
    BANK1            80      0      10
    BANK3            96      0       0
    BANK2            96      0       0

Pointer List with Targets:

    sprintf@f	PTR const unsigned char  size(1) Largest target is 3
		 -> STR_25(CODE[3]), STR_24(CODE[3]), STR_21(CODE[3]), STR_19(CODE[3]), 
		 -> STR_9(CODE[3]), STR_8(CODE[3]), STR_5(CODE[3]), 

    sprintf@sp	PTR unsigned char  size(1) Largest target is 8
		 -> check_mensajes@str_dinero2_445(BANK0[8]), check_mensajes@str_dinero_444(BANK0[8]), check_mensajes@str_int(BANK0[8]), check_mensajes@str_dinero2(BANK0[8]), 
		 -> check_mensajes@str_dinero(BANK0[8]), check_mensajes@str_temperatura(BANK0[6]), 

    sprintf@ap	PTR void [1] size(1) Largest target is 2
		 -> ?_sprintf(BANK0[2]), 

    LCD_WM@c	PTR unsigned char  size(2) Largest target is 17
		 -> STR_27(CODE[7]), STR_26(CODE[14]), check_mensajes@str_dinero2_445(BANK0[8]), STR_23(CODE[5]), 
		 -> STR_22(CODE[17]), STR_20(CODE[9]), check_mensajes@str_int(BANK0[8]), STR_18(CODE[10]), 
		 -> STR_17(CODE[17]), STR_16(CODE[14]), STR_15(CODE[17]), STR_14(CODE[17]), 
		 -> STR_13(CODE[8]), STR_12(CODE[10]), STR_11(CODE[8]), STR_10(CODE[17]), 
		 -> check_mensajes@str_dinero2(BANK0[8]), STR_7(CODE[5]), STR_6(CODE[8]), check_mensajes@str_temperatura(BANK0[6]), 
		 -> STR_4(CODE[5]), STR_3(CODE[13]), STR_2(CODE[15]), STR_1(CODE[16]), 


Critical Paths under _main in COMMON

    None.

Critical Paths under _ISR in COMMON

    _enviarDATA_USART->_enviarUSART

Critical Paths under _main in BANK0

    _main->_check_transmisiones
    _check_transmisiones->_check_mensajes
    _check_mensajes->_sprintf
    _sprintf->___lwmod
    ___lwmod->___lwdiv
    _LCD_WM->_LCD_W
    _LCD_W->_LCD_t
    _LCD_init->_LCD_t8
    _LCD_t8->_LCD_t

Critical Paths under _ISR in BANK0

    None.

Critical Paths under _main in BANK1

    None.

Critical Paths under _ISR in BANK1

    None.

Critical Paths under _main in BANK3

    None.

Critical Paths under _ISR in BANK3

    None.

Critical Paths under _main in BANK2

    None.

Critical Paths under _ISR in BANK2

    None.

Call Graph Tables:

 ---------------------------------------------------------------------------------
 (Depth) Function   	        Calls       Base Space   Used Autos Params    Refs
 ---------------------------------------------------------------------------------
 (0) _main                                                 1     1      0   20058
                                             79 BANK0      1     1      0
                          _IRcontrol
                             _LCD_WM
                           _LCD_init
                             _LCD_t8
                     _check_mensajes
                _check_transmisiones
 ---------------------------------------------------------------------------------
 (1) _check_transmisiones                                  1     1      0    8304
                                             78 BANK0      1     1      0
                          _IRcontrol
                              _LCD_W
                             _LCD_t8
                     _check_mensajes
                          _e2accion3
 ---------------------------------------------------------------------------------
 (2) _e2accion3                                            3     3      0      45
                                              0 BANK0      3     3      0
 ---------------------------------------------------------------------------------
 (2) _check_mensajes                                      51    51      0    6090
                                             27 BANK0     51    51      0
                              _LCD_W
                             _LCD_WM
                             _LCD_t8
                            _sprintf
 ---------------------------------------------------------------------------------
 (3) _sprintf                                             21    18      3    1570
                                             14 BANK0     13    10      3
                            ___lwdiv
                            ___lwmod
 ---------------------------------------------------------------------------------
 (4) ___lwmod                                              6     2      4     265
                                              8 BANK0      6     2      4
                            ___lwdiv (ARG)
 ---------------------------------------------------------------------------------
 (4) ___lwdiv                                              8     4      4     268
                                              0 BANK0      8     4      4
 ---------------------------------------------------------------------------------
 (3) _LCD_WM                                               4     2      2    1527
                                              7 BANK0      4     2      2
                              _LCD_W
 ---------------------------------------------------------------------------------
 (4) _LCD_W                                                5     5      0     112
                                              2 BANK0      5     5      0
                              _LCD_t
 ---------------------------------------------------------------------------------
 (2) _IRcontrol                                            3     3      0       0
                                              0 BANK0      3     3      0
 ---------------------------------------------------------------------------------
 (1) _LCD_init                                             2     2      0    2079
                                             11 BANK0      2     2      0
                              _LCD_t
                             _LCD_t8
 ---------------------------------------------------------------------------------
 (3) _LCD_t8                                               9     7      2    2057
                                              2 BANK0      9     7      2
                              _LCD_t
 ---------------------------------------------------------------------------------
 (4) _LCD_t                                                2     2      0      22
                                              0 BANK0      2     2      0
 ---------------------------------------------------------------------------------
 Estimated maximum stack depth 4
 ---------------------------------------------------------------------------------
 (Depth) Function   	        Calls       Base Space   Used Autos Params    Refs
 ---------------------------------------------------------------------------------
 (6) _ISR                                                  7     7      0      22
                                              1 COMMON     7     7      0
                   _enviarDATA_USART
 ---------------------------------------------------------------------------------
 (7) _enviarDATA_USART                                     0     0      0      22
                        _enviarUSART
 ---------------------------------------------------------------------------------
 (8) _enviarUSART                                          1     1      0      22
                                              0 COMMON     1     1      0
 ---------------------------------------------------------------------------------
 Estimated maximum stack depth 8
 ---------------------------------------------------------------------------------

 Call Graph Graphs:

 _main (ROOT)
   _IRcontrol
   _LCD_WM
     _LCD_W
       _LCD_t
   _LCD_init
     _LCD_t
     _LCD_t8
       _LCD_t
   _LCD_t8
     _LCD_t
   _check_mensajes
     _LCD_W
       _LCD_t
     _LCD_WM
       _LCD_W
         _LCD_t
     _LCD_t8
       _LCD_t
     _sprintf
       ___lwdiv
       ___lwmod
         ___lwdiv (ARG)
   _check_transmisiones
     _IRcontrol
     _LCD_W
       _LCD_t
     _LCD_t8
       _LCD_t
     _check_mensajes
       _LCD_W
         _LCD_t
       _LCD_WM
         _LCD_W
           _LCD_t
       _LCD_t8
         _LCD_t
       _sprintf
         ___lwdiv
         ___lwmod
           ___lwdiv (ARG)
     _e2accion3

 _ISR (ROOT)
   _enviarDATA_USART
     _enviarUSART

 Address spaces:
Name               Size   Autos  Total    Cost      Usage
BITCOMMON            E      0       0       0        0.0%
EEDATA             100      0       0       0        0.0%
NULL                 0      0       0       0        0.0%
CODE                 0      0       0       0        0.0%
COMMON               E      8       E       1      100.0%
BITSFR0              0      0       0       1        0.0%
SFR0                 0      0       0       1        0.0%
BITSFR1              0      0       0       2        0.0%
SFR1                 0      0       0       2        0.0%
STACK                0      0       0       2        0.0%
ABS                  0      0      68       3        0.0%
BITBANK0            50      0       0       4        0.0%
BITSFR3              0      0       0       4        0.0%
SFR3                 0      0       0       4        0.0%
BANK0               50     50      50       5      100.0%
BITSFR2              0      0       0       5        0.0%
SFR2                 0      0       0       5        0.0%
BITBANK1            50      0       0       6        0.0%
BANK1               50      0       A       7       12.5%
BITBANK3            60      0       0       8        0.0%
BANK3               60      0       0       9        0.0%
BITBANK2            60      0       0      10        0.0%
BANK2               60      0       0      11        0.0%
DATA                 0      0      68      12        0.0%


Microchip Technology PIC Macro Assembler V1.41 build -162212810 
Symbol Table                                                                                   Thu Jun 01 12:20:18 2017

                            pc 0002                    __CFG_CP$OFF 0000                             fsr 0004  
                          _ADC 00A9                            _PR2 0092                   __CFG_CPD$OFF 0000  
                          _ISR 06FB                            u905 0E34                            u915 0E3E  
                          u855 0D83                            u945 0DAF                            u875 0E1C  
                          u965 0DC0                            u895 0E28                            u975 0DC9  
                          u995 0E55                            fsr0 0004                            indf 0000  
               _check_mensajes 002B                   __CFG_LVP$OFF 0000                           ?_ISR 0070  
                         l2003 0508                           l2021 052B                           l2005 050B  
                         l2017 0522                           l2009 0514                           l1511 0DAC  
                         l1513 0DBA                           l1521 0DD3                           l1601 0F31  
                         l1603 0FFB                           l1517 0DC8                           l1701 0180  
                         l1711 01AF                           l1547 0D51                           l1563 0F67  
                         l2195 0F1A                           l1573 0F7E                           l1557 0F51  
                         l1637 0075                           l1495 0E3D                           l1487 0E19  
                         l1591 0FB4                           l1831 03FD                           l1823 03E8  
                         l1743 0245                           l1727 01FA                           l1663 00EE  
                         l1489 0E27                           l1585 0FA5                           l1825 03F4  
                         l1905 0448                           l1499 0E48                           l1579 0F84  
                         l1835 0406                           l1691 016E                           l1931 0487  
                         l1925 047D                           l1933 048A                           l1599 0FB8  
                         l1775 02DB                           l1759 0290                           l1919 0470  
                         l1927 047E                           l1697 0177                           l1689 0162  
                         l1953 04B0                           l1937 0493                           l1965 04C4  
                         l1949 04A7                           l1799 036A                           l1993 04F6  
                         l1977 04D9                           l1969 04CD                           l1989 04ED  
                         l1999 04FF                           STR_1 066F                           STR_2 067F  
                         STR_3 06AA                           STR_4 06F3                           STR_5 06F8  
                         STR_6 06D4                           STR_7 06F3                           STR_8 06F8  
                         STR_9 06F8                           u1005 0E6A                           u1015 0E76  
                         u1025 0E87                           u1075 0F9B                           _IOCB 0096  
                         u1185 00FA                           u1707 0044                           u1717 008F  
                         u1807 0D18                           u1727 010E                           u1817 053E  
                         u1737 01C9                           u1907 0E97                           u1827 054F  
                         u1747 0214                           u1917 0D36                           u1837 0566  
                         u1757 025F                           u1927 0D40                           u1847 0577  
                         u1767 02AA                           u1937 0D4A                           u1857 058D  
                         u1777 02F5                           u1697 0D00                           u1867 05A3  
                         u1787 0384                           u1877 05B9                           u1797 0DA0  
                         u1887 05CF                           u1897 05E5                           _WPUB 0095  
                 __CFG_WRT$OFF 0000                   ?_enviarUSART 0070                           _cont 00A4  
                         _main 0E9B                           btemp 007E                           start 0012  
                __CFG_IESO$OFF 0000                  __CFG_MCLRE$ON 0000                          ??_ISR 0071  
             __end_of_LCD_init 05EB                          ?_main 0070                          STR_10 061A  
                        STR_11 06DC                          STR_20 06CB                          STR_12 06B7  
                        STR_21 06F8                          STR_13 06E4                          STR_14 063C  
                        STR_22 062B                          STR_23 06F3                          STR_15 065E  
                        STR_24 06F8                          STR_16 069C                          STR_25 06F8  
                        STR_17 064D                  __CFG_WDTE$OFF 0000                          STR_18 06C1  
                        STR_26 068E                          STR_19 06F8                          STR_27 06EC  
                        _ANSEL 0188                          _T1CON 0010                          _T2CON 0012  
              __end_of___lwdiv 0E4D                          _LCD_W 0D78                          i1l207 07D9  
                        i1l145 07E7                __end_of___lwmod 0DD8                          _LCD_t 0D2C  
                        _RCREG 001A                          _TMR1H 000F                          _TMR1L 000E  
       __end_of_check_mensajes 0434                          _SPBRG 0099                          _PORTA 0005  
                        _PORTD 0008                          _PORTE 0009                          _TRISA 0085  
                        _TRISB 0086                          _TRISC 0087                          _TRISD 0088  
                        _TRISE 0089                          _TXREG 0019                 __CFG_FCMEN$OFF 0000  
                        _cont2 00A2                __end_of_dpowers 061A                 __CFG_BOREN$OFF 0000  
                        pclath 000A                          status 0003                          wtemp0 007E  
              __end_of_sprintf 1000             __size_of_IRcontrol 0021                __initialization 0015  
                 __end_of_main 0F2A       __end_of_enviarDATA_USART 0E0F                         ??_main 006F  
                       ?_LCD_W 0070                         ?_LCD_t 0070                         LCD_W@c 0026  
                       LCD_W@h 0025                         LCD_W@l 0024                         LCD_t@c 0021  
              ?_check_mensajes 0070             __size_of_e2accion3 001C                         _ANSELH 0189  
                       i1l2103 07C0                         _LCD_WM 0D4E                         i1l2043 0722  
                       i1l2109 07CD                         i1l2037 070F                         i1l2049 0735  
                       i1l2067 0768                         i1l2093 07A6                         i1l2085 079C  
                       i1l2087 079D                         _LCD_t8 0E4D                         u161_25 0741  
                       u163_25 0775                         u194_27 0761                         u195_27 0795  
                       _OSCCON 008F                         _SPBRGH 009A                         _SSPBUF 0013  
                       _SSPCON 0014                enviarUSART@dato 0070                 __CFG_PWRTE$OFF 0000  
                    ??___lwdiv 0024                         _dinero 007A                      ??___lwmod 002C  
              check_mensajes@i 006C              __end_of_IRcontrol 0D2C                         saved_w 007E  
                    ??_sprintf 0031    __end_of_check_transmisiones 0538        __end_of__initialization 0027  
                    ?_LCD_init 0070                  __end_of_LCD_W 0DA4           __size_of_enviarUSART 000A  
                __end_of_LCD_t 0D4E              __end_of_e2accion3 0D0B                 __pcstackCOMMON 0070  
                    LCD_t8@com 002A                        ??_LCD_W 0022                        ??_LCD_t 0020  
               _OPTION_REGbits 0081                     __pbssBANK1 00A0                        ?_LCD_WM 0027  
                      ?_LCD_t8 0022                        LCD_WM@c 0027                        LCD_WM@i 002A  
                      LCD_t8@h 0028                        LCD_t8@i 0022                        LCD_t8@l 0027  
                   ??_LCD_init 002B                     __pmaintext 0E9B                     __pintentry 0004  
                      _SSPSTAT 0094                     __stringtab 0600                __size_of_LCD_WM 002A  
              __size_of_LCD_t8 004E                        ___lwdiv 0E0F                        ___lwmod 0DA4  
             ??_check_mensajes 003B                        __ptext1 0434                        __ptext2 0CEF  
                      _dineroT 00A0                        __ptext3 002B                        __ptext4 0F2A  
                      __ptext5 0DA4                        __ptext6 0E0F                        __ptext7 0D4E  
                      __ptext8 0D78                        __ptext9 0D0B              ?_enviarDATA_USART 0070  
                 __size_of_ISR 00EB                      _T1CONbits 0010                        _dpowers 0610  
           ??_enviarDATA_USART 0071  check_mensajes@str_dinero2_445 0064                        _sprintf 0F2A  
                      _tortrix 00A8           end_of_initialization 0027            check_mensajes@i_448 006D  
               e2accion3@color 0022                      _RCSTAbits 0018                      _PORTAbits 0005  
                    _PORTBbits 0006                      _PORTCbits 0007                      _IRcontrol 0D0B  
               __end_of_LCD_WM 0D78                 __end_of_LCD_t8 0E9B                      _TXSTAbits 0098  
            __size_of_LCD_init 00B3                      _e2accion3 0CEF                    _BAUDCTLbits 0187  
                  _accionUSART 007C            start_initialization 0015                    __end_of_ISR 07E6  
                   ?_IRcontrol 0070                       ??_LCD_WM 0029                       ??_LCD_t8 0024  
                ??_enviarUSART 0070       __CFG_FOSC$INTRC_NOCLKOUT 0000   __size_of_check_transmisiones 0104  
                   ?_e2accion3 0070       check_mensajes@str_dinero 004C                    __pbssCOMMON 0078  
                    ___latbits 0002                  __pcstackBANK0 0020                       LCD_t8@rs 0029  
                  sprintf@flag 0035                    sprintf@prec 0036               ___lwdiv@dividend 0022  
          __end_of_enviarUSART 07F0                       ?___lwdiv 0020                       ?___lwmod 0028  
                    __pstrings 0600                 __size_of_LCD_W 002C                 __size_of_LCD_t 0022  
                    _noControl 0078                      _n_mensaje 007D  check_mensajes@str_temperatura 003E  
             ___lwdiv@quotient 0025                       ?_sprintf 002E                    ??_IRcontrol 0020  
    __size_of_enviarDATA_USART 0037              interrupt_function 0004                       _LCD_init 0538  
                     _PIE1bits 008C                       _PIR1bits 000C                    ??_e2accion3 0020  
                  __stringbase 060F                    _enviarUSART 07E6               __size_of___lwdiv 003E  
             __size_of___lwmod 0034             __end_of__stringtab 0610      check_mensajes@str_dinero2 005C  
                   sprintf@val 0037          check_mensajes@str_int 0044                ___lwdiv@divisor 0020  
          _check_transmisiones 0434                ___lwdiv@counter 0027        __size_of_check_mensajes 0409  
                     __ptext10 0538                       __ptext11 0E4D                       __ptext12 0D2C  
                     __ptext13 06FB                       __ptext14 0DD8                       __ptext15 07E6  
            __CFG_BOR4V$BOR40V 0000               __size_of_sprintf 00D6                  __size_of_main 008F  
                     _tampicos 00A7           ?_check_transmisiones 0070                       main@dato 006F  
                   _INTCONbits 000B                       intlevel1 0000                      sprintf@ap 0034  
                    sprintf@sp 0039               _enviarDATA_USART 0DD8               ___lwmod@dividend 002A  
 check_mensajes@str_dinero_444 0054                      stringcode 060A          ??_check_transmisiones 006E  
                  _temperatura 00A6                       sprintf@c 003A                       sprintf@f 002E  
              ___lwmod@divisor 0028                ___lwmod@counter 002D                       stringdir 060A  
                     stringtab 0600  
